(lp1
S'fear::@::initiation'
p2
aS'disease::@::france'
p3
aS'misunderstanding::@::use'
p4
aS'result::@::system'
p5
aS'wickedness::@::story'
p6
aS'bowel::@::day'
p7
aS'jail::@::mile'
p8
aS'doctor::@::age'
p9
aS'bag::@::table'
p10
aS'pas::@::mile'
p11
aS'bone::@::village'
p12
aS'stuff::@::foot'
p13
aS'others::@::ground'
p14
aS'fusang::@::situation'
p15
aS'personage::@::figure'
p16
aS'answer::@::summary'
p17
aS'basket::@::people'
p18
aS'shoulder::@::robe'
p19
aS'week::@::darius'
p20
aS'sun::@::spite'
p21
aS'beer::@::mug'
p22
aS'bowl::@::rice'
p23
aS'box::@::bottom'
p24
aS'earth::@::edge'
p25
aS'teaching::@::cost'
p26
aS'gloom::@::departure'
p27
aS'idea::@::time'
p28
aS'disciple::@::expense'
p29
aS'knowledge::@::myers'
p30
aS'favourite::@::frown'
p31
aS'look::@::distance'
p32
aS'form::@::line'
p33
aS'limb::@::angle'
p34
aS'alarm::@::tidings'
p35
aS'disciple_of_paracelsus::@::expense'
p36
aS'idea::@::writing'
p37
aS'logger::@::bank'
p38
aS'cabbage::@::head'
p39
aS'cedarbark::@::native'
p40
aS'stake::@::ground'
p41
aS'innumerable_stake::@::ground'
p42
aS'information::@::work'
p43
aS'men::@::height'
p44
aS'spear::@::space'
p45
aS'sharp_stake::@::ground'
p46
aS'castle::@::week'
p47
aS'seed::@::christ'
p48
aS'competition::@::value'
p49
aS'will::@::oriental'
p50
aS'hell::@::ancient'
p51
aS'water::@::white'
p52
aS'sea::@::poetry'
p53
aS'castille::@::bronze'
p54
aS'grange::@::point'
p55
aS'coat::@::arm'
p56
aS'jacket::@::arm'
p57
aS'coat::@::shoulder'
p58
aS'knee::@::hand'
p59
aS'mantle::@::shoulder'
p60
aS'arm::@::back'
p61
aS'impression::@::mind'
p62
aS'backpack::@::shoulder'
p63
aS'sceptre::@::class'
p64
aS'top::@::hand'
p65
aS'leg::@::seat'
p66
aS'head::@::hand'
p67
aS'knee::@::arm'
p68
aS'tail::@::shoulder'
p69
aS'leg::@::side'
p70
aS'feeling::@::man'
p71
aS'waist::@::hand'
p72
aS'fanny::@::table'
p73
aS'raincoat::@::arm'
p74
aS'apron::@::hand'
p75
aS'coconut::@::milk'
p76
aS'story::@::legend'
p77
aS'harriet::@::brenda'
p78
aS'accretion::@::scale'
p79
aS'end::@::rest'
p80
aS'cottage::@::castle'
p81
aS'worker::@::literature'
p82
aS'vessel::@::bridge'
p83
aS'statistical_worker::@::literature'
p84
aS'dress::@::arm'
p85
aS'tree::@::coldness'
p86
aS'wagon::@::gallows'
p87
aS'tree::@::breeze'
p88
aS'meal::@::reverence'
p89
aS'clothes::@::coat'
p90
aS'hair::@::cap'
p91
aS'tree::@::wet_coldness'
p92
aS'body::@::influence'
p93
aS'category::@::partner'
p94
aS'system::@::circumstance'
p95
aS'army::@::ting'
p96
aS'front::@::cross'
p97
aS'trader::@::child'
p98
aS'lip::@::upper'
p99
aS'garment::@::gold'
p100
aS'canopy::@::drink'
p101
aS'drapery::@::forest'
p102
aS'dress::@::fold'
p103
aS'flow::@::fistula'
p104
aS'dress::@::hem'
p105
aS'johnson::@::table'
p106
aS'anguish::@::breast'
p107
aS'howley::@::room'
p108
aS'clergyman::@::church'
p109
aS'friend::@::column'
p110
aS'signature::@::time'
p111
aS'wapi::@::word'
p112
aS'doubt::@::reading'
p113
aS'hawkins::@::gait'
p114
aS'cord::@::inch'
p115
aS'dress::@::neck'
p116
aS'plate::@::middle'
p117
aS'abc::@::a'
p118
aS'head::@::men'
p119
aS'tower::@::moon'
p120
aS'ground::@::picture'
p121
aS'selfe::@::pathway'
p122
aS'general_sherman::@::sound'
p123
aS'shakespeare::@::englishman'
p124
aS'feed::@::light'
p125
aS'society::@::sound'
p126
aS'richou::@::memory'
p127
aS'sherman::@::sound'
p128
aS'elephant::@::leg'
p129
aS'vehicle::@::corner'
p130
aS'word::@::tower'
p131
aS'pair::@::waist'
p132
aS'needle::@::artery'
p133
aS'rate::@::paint'
p134
aS'washington::@::ratification'
p135
aS'cry::@::chaos'
p136
aS'order::@::waiter'
p137
aS'time::@::preacher'
p138
aS'law::@::period'
p139
aS'frigate::@::anchor'
p140
aS'boat::@::anchor'
p141
aS'index::@::will'
p142
aS'pendulum::@::time'
p143
aS'yacht::@::anchor'
p144
aS'animal::@::trot'
p145
aS'airship::@::rate'
p146
aS'door::@::push'
p147
aS'ship::@::dock'
p148
aS'bag::@::side'
p149
aS'case::@::word'
p150
aS'horse::@::mane'
p151
aS'doctor::@::sieve'
p152
aS'horse::@::outfit'
p153
aS'horse::@::shoe'
p154
aS'foot::@::sandal'
p155
aS'order::@::watch'
p156
aS'making::@::individual'
p157
aS'danger::@::boiler'
p158
aS'effort::@::talk'
p159
aS'handkerchief::@::bilbo'
p160
aS'word::@::boy'
p161
aS'clothes::@::x'
p162
aS'hitch::@::engine'
p163
aS'rhyme::@::line'
p164
aS'stop::@::line'
p165
aS'rifle::@::austrian'
p166
aS'exception::@::bank'
p167
aS'lemon::@::juice'
p168
aS'@::set_on^-1::savage'
p169
aS'lemon::@::lemon_juice'
p170
aS'@::envelop_along::line'
p171
aS'@::envelop::core'
p172
aS'@::set_on^-1::negro_savage'
p173
aS'line::envelop_along^-1::@'
p174
aS'negro_savage::set_on::@'
p175
aS'son::@::living'
p176
aS'supply::@::drone'
p177
aS'savage::set_on::@'
p178
aS'core::envelop^-1::@'
p179
aS'library::@::floor'
p180
aS'patient::@::floor'
p181
aS'patient::@::source'
p182
aS'oak::@::branch'
p183
aS'tree::@::leaf'
p184
aS'pretence::@::mind'
p185
aS'part::@::official'
p186
aS'day::@::mother'
p187
aS'story::@::sentiment'
p188
aS'head::@::hair'
p189
aS'oak::@::leaf'
p190
aS'angle::@::pendulum'
p191
aS'cantle::@::death'
p192
aS'ear::@::cry'
p193
aS'ear_of_council::@::cry'
p194
aS'plot::@::change'
p195
aS'iron::@::iron'
p196
aS'return::@::woman'
p197
aS'butter::@::onion'
p198
aS'garlic_clove::@::onion'
p199
aS'shallot::@::tablespoon'
p200
aS'parsley::@::onion'
p201
aS'cup::@::onion'
p202
aS'tablespoon::@::shallot'
p203
aS'oil::@::onion'
p204
aS'garlic::@::olive_oil'
p205
aS'pepper::@::onion'
p206
aS'onion::@::garlic'
p207
aS'clove::@::tablespoon'
p208
aS'tablespoon::@::large_onion'
p209
aS'tsp::@::ginger'
p210
aS'onion::@::clove_garlic'
p211
aS'onion::@::salt'
p212
aS'pepper::@::cup'
p213
aS'teaspoon::@::clove_garlic'
p214
aS'garlic::@::salt'
p215
aS'parsley::@::garlic'
p216
aS'pepper::@::oil'
p217
aS'amount::@::stop'
p218
aS'peach::@::peel'
p219
aS'phone::@::man'
p220
aS'phone::@::mother'
p221
aS'ear::@::voice'
p222
aS'phone::@::jack'
p223
aS'phone::@::dad'
p224
aS'phone::@::woman'
p225
aS'phone::@::matt'
p226
aS'phone::@::father'
p227
aS'phone::@::voice'
p228
aS'phone::@::bill'
p229
aS'receiver::@::voice'
p230
aS'silence::@::voice'
p231
aS'phone::@::john'
p232
aS'phone::@::paul'
p233
aS'microphone::@::announcer'
p234
aS'intercom::@::pilot'
p235
aS'camera::@::reporter'
p236
aS'mike::@::man'
p237
aS'phone::@::receptionist'
p238
aS'microphone::@::woman'
p239
aS'cheese::@::ounce'
p240
aS'chicken::@::place'
p241
aS'celery::@::cup'
p242
aS'ginger::@::tablespoon'
p243
aS'tomato::@::cup'
p244
aS'cup_sugar::@::cup'
p245
aS'cheese::@::tomato'
p246
aS'cheese::@::place'
p247
aS'juice::@::cup'
p248
aS'sauce::@::cup'
p249
aS'air::@::bullet'
p250
aS'tablespoon::@::tablespoon'
p251
aS'oz::@::cup'
p252
aS'cheese::@::cup'
p253
aS'salt::@::cup'
p254
aS'tbsp::@::cup'
p255
aS'potato::@::peel'
p256
aS'potato::@::vegetable'
p257
aS'notion::@::race'
p258
aS'behavior::@::thing'
p259
aS'box::@::mugridge'
p260
aS'rabbit::@::moment'
p261
aS'mill::@::water'
p262
aS'propeller::@::engine'
p263
aS'vessel::@::engine'
p264
aS'generator::@::engine'
p265
aS'model::@::engine'
p266
aS'mill::@::engine'
p267
aS'fighter::@::engine'
p268
aS'light::@::generator'
p269
aS'equipment::@::battery'
p270
aS'series::@::engine'
p271
aS'lamp::@::generator'
p272
aS'car::@::engine'
p273
aS'radio::@::battery'
p274
aS'machine::@::engine'
p275
aS'truck::@::engine'
p276
aS'restaurant::@::menu'
p277
aS'coffin::@::urn'
p278
aS'town::@::trench'
p279
aS'student::@::presentation'
p280
aS'indian::@::sail'
p281
aS'poet::@::verse'
p282
aS'tirade::@::night'
p283
aS'voice::@::response'
p284
aS'colomba::@::ballata'
p285
aS'ringlet::@::child'
p286
aS'rifle::@::figure'
p287
aS'cloud::@::rayner'
p288
aS'robin::@::head'
p289
aS'screwdriver::@::screw'
p290
aS'consent::@::passage'
p291
aS'sheep::@::eye'
p292
aS'clockwork::@::vessel'
p293
aS'work::@::vessel'
p294
aS'egg::@::place'
p295
aS'shirt::@::jacket'
p296
aS'jaw::@::distance'
p297
aS'farthingale::@::skirt'
p298
aS'petticoat::@::dress'
p299
aS'buoy::@::head'
p300
aS'spike::@::spire'
p301
aS'cross::@::leg'
p302
aS'sofa::@::table'
p303
aS'chair::@::table'
p304
aS'men::@::table'
p305
aS'couch::@::table'
p306
aS'room::@::court'
p307
aS'cell::@::vessel'
p308
aS'table::@::dance_floor'
p309
aS'room::@::central_court'
p310
aS'electron::@::nucleus'
p311
aS'room::@::patio'
p312
aS'room::@::atrium'
p313
aS'error::@::centre'
p314
aS'house::@::square'
p315
aS'house::@::court'
p316
aS'chair::@::small_table'
p317
aS'granule::@::nucleus'
p318
aS'building::@::square'
p319
aS'building::@::yard'
p320
aS'building::@::plaza'
p321
aS'house::@::plaza'
p322
aS'throat::@::hummingbird'
p323
aS'sparrow::@::foot'
p324
aS'men::@::station'
p325
aS'spear::@::sword'
p326
aS'a::@::force'
p327
aS'walshe::@::violence'
p328
aS'nostril::@::bone'
p329
aS'knife::@::violence'
p330
aS'soldier::@::bayonet'
p331
aS'son::@::lance'
p332
aS'spoon::@::glass'
p333
aS'sword::@::sheath'
p334
aS'sword::@::scabbard'
p335
aS'smile::@::face'
p336
aS'shoot::@::height'
p337
aS'train::@::way'
p338
aS'eye::@::face'
p339
aS'key::@::lock_of_door'
p340
aS'route::@::good'
p341
aS'truck::@::fuel'
p342
aS'way::@::deal'
p343
aS'production::@::proprietorship'
p344
aS'figure::@::light'
p345
aS'truck::@::gear'
p346
aS'wasp::@::head'
p347
aS'uncle::@::crest'
p348
aS'threat::@::ear'
p349
aS'devotion::@::step_of_altar'
p350
aS'husband::@::mat'
p351
aS'indian::@::platform'
p352
aS'mosquito::@::ear'
p353
aS'animal::@::mammal'
p354
aS'whale::@::squid'
p355
aS'parasite::@::parasite'
p356
aS'world::@::household'
p357
aS'creature::@::creature'
p358
aS'fish::@::population'
p359
aS'guidance::@::herbage'
p360
aS'guidance::@::bush'
p361
aS'hawk::@::mouse'
p362
aS'priest::@::peasant'
p363
aS'whale::@::herring'
p364
aS'insect::@::insect'
p365
aS'vermin::@::seal'
p366
aS'variety::@::insect'
p367
aS'wolf::@::body'
p368
aS'tribesman::@::beginning'
p369
aS'creature::@::crow'
p370
aS'bird::@::homoptera'
p371
aS'guidance::@::animal'
p372
aS'fish::@::school'
p373
aS'ambulance::@::door'
p374
aS'ship::@::port'
p375
aS'truck::@::house'
p376
aS'apple::@::core'
p377
aS'horn::@::third'
p378
aS'steamer::@::interval'
p379
aS'trumpeter::@::noise'
p380
aS'stroke::@::interval'
p381
aS'servant::@::fire'
p382
aS'cry::@::distance'
p383
aS'servant::@::kitchen_fire'
p384
aS'knock::@::door'
p385
aS'baby::@::finger'
p386
aS'stone::@::finger'
p387
aS'eliot::@::taste'
p388
aS'meantime::@::none'
p389
aS'nurse::@::needle'
p390
aS'fruit::@::bread'
p391
aS'bed::@::sheet'
p392
aS'ground::@::magnificent_fragment'
p393
aS'face::@::mask'
p394
aS'preacher::@::something_of_sophist'
p395
aS'level::@::condition'
p396
aS'difference::@::circumstance'
p397
aS'great_fish::@::lyne'
p398
aS'bunch::@::inglethorp'
p399
aS'activity::@::condition'
p400
aS'latter::@::jaw'
p401
aS'everybody::@::disregard'
p402
aS'element::@::microscope'
p403
aS'formal_funeral::@::favorable_circumstance'
p404
aS'bed::@::quilt'
p405
aS'bed::@::sheet_of_basalt'
p406
aS'funeral::@::circumstance'
p407
aS'cape::@::collar'
p408
aS'bed::@::mattress'
p409
aS'sauroid_fish::@::lyne'
p410
aS'assay::@::condition'
p411
aS'opposition::@::stoneman'
p412
aS'theban::@::polemarchs'
p413
aS'depth::@::profile'
p414
aS'bottle::@::content'
p415
aS'gravel::@::bone'
p416
aS'solution::@::steam'
p417
aS'ureter::@::water'
p418
aS'path::@::loam'
p419
aS'town::@::inhabitant'
p420
aS'drainage::@::potash'
p421
aS'gully::@::earth'
p422
aS'flask::@::precipitate'
p423
aS'form::@::bed'
p424
aS'yard::@::stream'
p425
aS'bag::@::puttermesser'
p426
aS'extension::@::diagram'
p427
aS'inside::@::fury'
p428
aS'dish::@::time'
p429
aS'table::@::dinner'
p430
aS'bowl::@::food'
p431
aS'group::@::number'
p432
aS'bowl::@::interior'
p433
aS'sash::@::strip'
p434
aS'bowl::@::soup'
p435
aS'bowl::@::wood'
p436
aS'box::@::guest'
p437
aS'sound_for_pastor::@::nothing'
p438
aS'solution::@::comrade'
p439
aS'sound::@::nothing'
p440
aS'box::@::label'
p441
aS'table::@::father'
p442
aS'box::@::lid'
p443
aS'perilous::@::night'
p444
aS'star::@::alta'
p445
aS'nose::@::hill'
p446
aS'scree_on_mountainside::@::stair'
p447
aS'castle::@::building'
p448
aS'level::@::sea'
p449
aS'cauliflower::@::leaf'
p450
aS'green_pepper::@::cup'
p451
aS'celery::@::carrot'
p452
aS'chair::@::back'
p453
aS'isabella::@::solemnity_on_occasion'
p454
aS'edith::@::eye'
p455
aS'connexion_with_politics::@::care'
p456
aS'wood::@::people'
p457
aS'solid_circle::@::flux'
p458
aS'isabella::@::usual_solemnity'
p459
aS'gentleman::@::head'
p460
aS'connexion_of_ethic::@::care'
p461
aS'name_of_place::@::water'
p462
aS'material_church::@::christ'
p463
aS'border::@::sensitivity'
p464
aS'individual_thing::@::determinate_mode'
p465
aS'connexion_of_ethic::@::unprecedented_care'
p466
aS'principle_of_coexistence::@::object'
p467
aS'handmaid::@::special_virtue'
p468
aS'tory_captain::@::night'
p469
aS'citizenship::@::connotation_as_holder'
p470
aS'individual_thing::@::mode'
p471
aS'chair::@::bed'
p472
aS'chair::@::seat'
p473
aS'chisel::@::end'
p474
aS'ground::@::clergy'
p475
aS'view::@::doctrine'
p476
aS'sedition::@::town'
p477
aS'coat::@::shirt'
p478
aS'thread::@::shoulder'
p479
aS'hat::@::cap'
p480
aS'dress::@::petticoat'
p481
aS'toga::@::tunic'
p482
aS'robe::@::shoulder'
p483
aS'mother::@::dress'
p484
aS'coat::@::vest'
p485
aS'hood::@::cap'
p486
aS'glove::@::cotton_glove'
p487
aS'darius::@::week'
p488
aS'skirt::@::petticoat'
p489
aS'class::@::file'
p490
aS'brace::@::shirt'
p491
aS'jacket::@::shirt'
p492
aS'coat::@::waistcoat'
p493
aS'shoulder::@::thread'
p494
aS'emil::@::mariner'
p495
aS'dress::@::gown'
p496
aS'door::@::knife'
p497
aS'king::@::foam'
p498
aS'fox::@::bear'
p499
aS'roar::@::dozen'
p500
aS'number_of_inhabitant::@::famine'
p501
aS'number::@::famine'
p502
aS'fox::@::dog'
p503
aS'man::@::man'
p504
aS'galley::@::point'
p505
aS'thunder::@::cloud'
p506
aS'man::@::top'
p507
aS'will::@::beak'
p508
aS'disturbance::@::teligny'
p509
aS'calling::@::proportion'
p510
aS'death::make::@'
p511
aS'study::@::others'
p512
aS'plain::@::shadow'
p513
aS'fox::@::brown_dog'
p514
aS'frigate::@::day'
p515
aS'young_fox::@::dog'
p516
aS'rebel::@::zeno'
p517
aS'jesus::@::john'
p518
aS'band::@::few_day'
p519
aS'moment::@::point'
p520
aS'birmingham::@::interest'
p521
aS'pubescens::@::specie'
p522
aS'fox::@::rabbit'
p523
aS'gunliffe::@::girl'
p524
aS'flight::@::desert'
p525
aS'rabbit::@::fox'
p526
aS'deluge::@::jubal'
p527
aS'cathedral::@::band'
p528
aS'century::@::japan'
p529
aS'frog::@::animal'
p530
aS'parting::@::night'
p531
aS'garlic::@::pepper'
p532
aS'onion::@::pepper'
p533
aS'teaspoon::@::cup'
p534
aS'cup::@::green_onion'
p535
aS'garlic::@::large_onion'
p536
aS'tablespoon::@::scallion'
p537
aS'onion::@::tablespoon'
p538
aS'green_onion::@::tablespoon'
p539
aS'garlic::@::scallion'
p540
aS'olive_oil::@::onion'
p541
aS'tablespoon::@::cup'
p542
aS'goat::@::food'
p543
aS'foe::@::way'
p544
aS'sheep::@::mutton'
p545
aS'thing::@::grass'
p546
aS'mouse::@::wire'
p547
aS'number::@::market'
p548
aS'lady::@::house'
p549
aS'piece::@::fruit'
p550
aS'pig::@::meat'
p551
aS'goat::@::meat'
p552
aS'animal::@::purpose'
p553
aS'cattle::@::meat'
p554
aS'cattle::@::purpose'
p555
aS'cattle::@::export'
p556
aS'horse::@::purpose'
p557
aS'cattle::@::beef'
p558
aS'cow::@::purpose'
p559
aS'cattle::@::consumption'
p560
aS'animal::@::food'
p561
aS'cattle::@::home_consumption'
p562
aS'bullock::@::year'
p563
aS'cow::@::milk'
p564
aS'animal::@::meat'
p565
aS'animal::@::research'
p566
aS'hat::@::cloak'
p567
aS'hat::@::front'
p568
aS'poster::@::wind'
p569
aS'raven::@::dell'
p570
aS'benefit::@::half'
p571
aS'rock::@::direction'
p572
aS'owlet::@::dell'
p573
aS'cortex::@::instance'
p574
aS'hobbes::@::cobweb'
p575
aS'aggregate::@::scum'
p576
aS'drop::@::mother'
p577
aS'part::@::formula'
p578
aS'hotel::@::hospital'
p579
aS'jacket::@::button'
p580
aS'gown::@::fur'
p581
aS'jewel::@::spanish_point'
p582
aS'jewel::@::feather'
p583
aS'jewel::@::white_feather'
p584
aS'knife::@::hilt'
p585
aS'sword::@::hilt'
p586
aS'fellow::@::rustication'
p587
aS'countryman::@::adair'
p588
aS'library::@::person'
p589
aS'image::@::image'
p590
aS'latter::@::rate'
p591
aS'amount::@::fat'
p592
aS'quantity::@::water'
p593
aS'way::@::feast'
p594
aS'place::@::company'
p595
aS'berceau::@::meal'
p596
aS'silence::@::evening'
p597
aS'query::@::episode'
p598
aS'dip::@::bed'
p599
aS'vocation::@::sex'
p600
aS'manner::@::creature'
p601
aS'character::@::statute'
p602
aS'quantity::@::food'
p603
aS'abundance::@::milk'
p604
aS'individual::@::competitor'
p605
aS'individual::@::rate'
p606
aS'bankruptcy::@::flood'
p607
aS'lion::@::tail'
p608
aS'@::toy^-1::while'
p609
aS'@::toy^-1::wind'
p610
aS'jilting::@::wrist'
p611
aS'hitler::@::remark'
p612
aS'lock::@::intent'
p613
aS'girl::@::hair'
p614
aS'wind::toy::@'
p615
aS'@::look_as^-1::hunter'
p616
aS'men::go_with::@'
p617
aS'hunter::look_as::@'
p618
aS'musket::@::arm'
p619
aS'forehead::@::specie'
p620
aS'trio::@::dog'
p621
aS'shaft_of_light::@::gloom'
p622
aS'proud_ship::@::way'
p623
aS'poor_spaniard::@::plaza'
p624
aS'ship::@::way'
p625
aS'soldier::@::spot'
p626
aS'shipwrecked_trio::@::dog'
p627
aS'craft::@::grand_canal'
p628
aS'bourbon::@::foggy_morning'
p629
aS'spaniard::@::terrace'
p630
aS'husband::@::own_terrace'
p631
aS'other_vessel::@::duck'
p632
aS'archer::@::english'
p633
aS'sternness::@::rule'
p634
aS'vessel::@::duck'
p635
aS'general_duphot::@::staircase'
p636
aS'second::@::score'
p637
aS'eye::@::hideous_object'
p638
aS'acid_structure::@::model'
p639
aS'nucleic_structure::@::model'
p640
aS'@::consist_of^-1::dinner'
p641
aS'@::consist_of^-1::meat_dinner'
p642
aS'@::ladle^-1::mistress'
p643
aS'bread::@::fruit'
p644
aS'mistress::ladle::@'
p645
aS'meat_dinner::consist_of::@'
p646
aS'dinner::consist_of::@'
p647
aS'@::be_of::lagarta'
p648
aS'rabbit::@::animal'
p649
aS'nest::@::bird'
p650
aS'rocket::@::soul'
p651
aS'side::@::ridge'
p652
aS'club::@::presence'
p653
aS'continent::@::border'
p654
aS'heart::@::hath'
p655
aS'reputation::@::stain'
p656
aS'robe::@::wear'
p657
aS'charter::@::condition'
p658
aS'vindictiveness::@::earth'
p659
aS'beauty::@::false_step'
p660
aS'restorer::@::chief'
p661
aS'hoof::@::life'
p662
aS'honour::@::light'
p663
aS'cry::@::hindostan_arose'
p664
aS'sheep::@::head'
p665
aS'sheep::@::meat'
p666
aS'sheep::@::sake'
p667
aS'savage_tribe::@::purpose'
p668
aS'sheep::@::wool'
p669
aS'animal::@::sport'
p670
aS'cattle::@::market'
p671
aS'shirt::@::arm'
p672
aS'virgin::@::word'
p673
aS'chest::@::alex'
p674
aS'chest::@::thick_arm'
p675
aS'water::@::semicircular'
p676
aS'english_virgin::@::word'
p677
aS'end_of_glow::@::action'
p678
aS'middle::@::arm'
p679
aS'mountain::@::tip'
p680
aS'man::@::pleasure'
p681
aS'chest::@::david'
p682
aS'man::@::virtue'
p683
aS'body::@::arm'
p684
aS'untitled_virgin::@::word'
p685
aS'chest::@::arm'
p686
aS'chest::@::men'
p687
aS'end::@::action'
p688
aS'kitchen::@::herman'
p689
aS'chest::@::martin'
p690
aS'watchman::@::nothing'
p691
aS'shirt::@::trouser'
p692
aS'hat::@::face'
p693
aS'woman::@::head'
p694
aS'someone::@::eye'
p695
aS'space::@::life'
p696
aS'cloak::@::head'
p697
aS'justice::@::truth'
p698
aS'cap::@::brow'
p699
aS'd::@::eye'
p700
aS'tions::@::fret'
p701
aS'men::@::trouser'
p702
aS'trouser::@::boot'
p703
aS'mother::@::head'
p704
aS'arm::@::horace'
p705
aS'ring::@::glove'
p706
aS'woman::@::face'
p707
aS'helmet::@::forehead'
p708
aS'hat::@::hair'
p709
aS'veil::@::face'
p710
aS'shadow::@::leaf'
p711
aS'advocate::@::end'
p712
aS'elizabeth::@::york'
p713
aS'winter::@::street'
p714
aS'surf::@::strand'
p715
aS'sparrow::@::head'
p716
aS'spinach::@::leaf'
p717
aS'vegetable::@::leaf'
p718
aS'green::@::leaf'
p719
aS'asparagus::@::shoot'
p720
aS'relish::@::leaf'
p721
aS'nut::@::seed'
p722
aS'chestnut::@::seed'
p723
aS'vegetable::@::young_shoot'
p724
aS'direction::@::medium'
p725
aS'part::@::people'
p726
aS'bean::@::pod'
p727
aS'bolt::@::deck'
p728
aS'vegetable::@::young_fruit'
p729
aS'interval::@::rhyme'
p730
aS'ox::@::lion'
p731
aS'parsnip::@::root'
p732
aS'piece::@::hottentot'
p733
aS'asparagus::@::young_shoot'
p734
aS'bean::@::young_pod'
p735
aS'counsel::@::reason'
p736
aS'reason::@::thing'
p737
aS'secretary::@::health'
p738
aS'child::@::god'
p739
aS'men::@::evidence'
p740
aS'commissioner::@::accident'
p741
aS'committee::@::case'
p742
aS'house::@::god'
p743
aS'judge::@::petition'
p744
aS'bishop::@::matter'
p745
aS'council::@::point'
p746
aS'law::@::promise'
p747
aS'commissioner::@::fact'
p748
aS'officer::@::case'
p749
aS'men::@::affair'
p750
aS'jury::@::fact'
p751
aS'chief::@::offence'
p752
aS'sense::@::nature'
p753
aS'people::@::god'
p754
aS'physiologist::@::subject'
p755
aS'sword::@::weapon'
p756
aS'increase::@::uncertainty'
p757
aS'chief::@::delegate'
p758
aS'problem::@::problem'
p759
aS'relationship::@::morality'
p760
aS'fate::@::series'
p761
aS'television::@::radio'
p762
aS'private_reading::@::detail'
p763
aS'judgment::@::nation'
p764
aS'dutch::@::force'
p765
aS'great::@::erudition'
p766
aS'tiger::@::eye'
p767
aS'lord::@::look'
p768
aS'old_lord::@::look'
p769
aS'eye::@::kind'
p770
aS'crusader::@::banner'
p771
aS'jean::@::writer'
p772
aS'choice::@::will'
p773
aS'regard::@::honour'
p774
aS'truck::@::bomber'
p775
aS'thunder::@::woman'
p776
aS'revival::@::melody'
p777
aS'day::@::scherzo'
p778
aS'dispersion::@::vortex'
p779
aS'truck::@::vehicle'
p780
aS'van::@::driver'
p781
aS'use::@::chemical'
p782
aS'reason::@::distance'
p783
aS'project::@::year'
p784
aS'carriage::@::footman'
p785
aS'house::@::cherokee'
p786
aS'worker::@::parameter'
p787
aS'ship::@::watcher'
p788
aS'car::@::afternoon'
p789
aS'insect::@::envelope'
p790
aS'hand::@::field'
p791
aS'wasp::@::bee'
p792
aS'axe::@::head'
p793
aS'sword::@::head'
p794
aS'ax::@::head'
p795
aS'hand::@::head'
p796
aS'chopper::@::beam'
p797
aS'arm::@::head'
p798
aS'state::@::time'
p799
aS'shriek::@::air'
p800
aS'blow::@::men'
p801
aS'mollusc::@::grate_against_bottom'
p802
aS'wood::@::horseman'
p803
aS'thing::@::rail'
p804
aS'hand::@::man'
p805
aS'sudden_spell::@::cascade'
p806
aS'king::@::head'
p807
aS'sappho::@::abyss'
p808
aS'fox::@::level'
p809
aS'parasite_parvum::@::people'
p810
aS'crime::@::head'
p811
aS'mollusc::@::grate'
p812
aS'delta::@::tract'
p813
aS'axe::@::wood'
p814
aS'fact::@::priesthood'
p815
aS'climate::@::colony'
p816
aS'date::@::transaction'
p817
aS'exercise::@::miscellaneous_work'
p818
aS'arrival::@::rain'
p819
aS'use::@::glass'
p820
aS'termination::@::constantinople'
p821
aS'horde::@::city'
p822
aS'exercise::@::prose_work'
p823
aS'belief::@::scheme_of_distribution'
p824
aS'degree::@::purpose'
p825
aS'ground::@::fragment'
p826
aS'pine_forest::@::lawn'
p827
aS'post::@::beam'
p828
aS'forest::@::lawn'
p829
aS'bed::@::pillow'
p830
aS'stream::@::dam'
p831
aS'shore::@::mountain'
p832
aS'ground::@::fragment_of_stone'
p833
aS'bomber::@::fighter'
p834
aS'sword::@::word'
p835
aS'bottle::@::neck'
p836
aS'wagner::@::park'
p837
aS'sort::@::character'
p838
aS'man::@::neck'
p839
aS'cleavage_of_mesoblast::@::yolk'
p840
aS'intrigue::@::monastery'
p841
aS'castle::@::tower'
p842
aS'nothing::@::knowledge'
p843
aS'none::@::battle'
p844
aS'others::@::party'
p845
aS'pandal::@::capacity'
p846
aS'church::@::suffocation'
p847
aS'place::@::door'
p848
aS'cathedral::@::door'
p849
aS'hall::@::ceiling'
p850
aS'night::@::rafter'
p851
aS'chapel::@::suffocation'
p852
aS'reign::@::catharine'
p853
aS'prologue::@::pit'
p854
aS'church::@::atterbury'
p855
aS'day::@::providence'
p856
aS'course::@::devil'
p857
aS'behalf::@::moses'
p858
aS'voice::@::jew'
p859
aS'mosque::@::shafeys'
p860
aS'way::@::god'
p861
aS'complaint::@::relief'
p862
aS'alteration::@::queen'
p863
aS'cathedral::@::priest'
p864
aS'place::@::one'
p865
aS'case::@::life'
p866
aS'petition::@::writ'
p867
aS'diocese::@::bishop'
p868
aS'khutbeh::@::inundation'
p869
aS'church::@::soul'
p870
aS'john::@::jesus'
p871
aS'sense::@::army'
p872
aS'chair::@::room'
p873
aS'room::@::courtyard'
p874
aS'hair::@::head'
p875
aS'officer::@::table'
p876
aS'building::@::courtyard'
p877
aS'hair::@::face'
p878
aS'table::@::room'
p879
aS'chair::@::wall'
p880
aS'men::@::fire'
p881
aS'men::@::long_table'
p882
aS'family::@::table'
p883
aS'cord::@::neck'
p884
aS'child::@::teacher'
p885
aS'company::@::table'
p886
aS'group::@::bed'
p887
aS'wall::@::house'
p888
aS'fork::@::cake'
p889
aS'square::@::mob'
p890
aS'square::@::mob_of_lackey'
p891
aS'coat::@::front'
p892
aS'child::@::probability'
p893
aS'jacket::@::front'
p894
aS'overcoat::@::style'
p895
aS'lip::@::smile'
p896
aS'button::@::way'
p897
aS'parcel::@::hope'
p898
aS'hair::@::center'
p899
aS'chicken::@::twain'
p900
aS'hair::@::seam'
p901
aS'star::@::spirit'
p902
aS'dome_of_glass::@::light'
p903
aS'light::@::grandeur'
p904
aS'sun::@::eye'
p905
aS'pillar::@::hope'
p906
aS'flame::@::personality'
p907
aS'egg::@::eye'
p908
aS'coat::@::hat'
p909
aS'egg::@::florence'
p910
aS'sun::@::blue_eye'
p911
aS'band::@::day'
p912
aS'crow::@::wing'
p913
aS'eye::@::lip'
p914
aS'dawn::@::rampart'
p915
aS'apostle::@::side'
p916
aS'donkey::@::foot'
p917
aS'entire_surface::@::glade'
p918
aS'head::@::horn'
p919
aS'treatment::@::difference'
p920
aS'surface::@::glade'
p921
aS'dress::@::jacket'
p922
aS'eagle::@::vulture'
p923
aS'chest::@::michael'
p924
aS'child::@::influence'
p925
aS'god::@::man'
p926
aS'pain_of_life::@::word'
p927
aS'heart::@::quantity'
p928
aS'building::@::seat'
p929
aS'piabanha::@::bed'
p930
aS'workman::@::chalk'
p931
aS'action::@::cavity'
p932
aS'item::@::stat'
p933
aS'elephant::@::hole'
p934
aS'owner::@::land'
p935
aS'owl::@::tenement'
p936
aS'circuit::@::q'
p937
aS'advice::@::teen'
p938
aS'voice::@::praise'
p939
aS'lute::@::altisidora'
p940
aS'wireless::@::nevile'
p941
aS'praise::@::warble'
p942
aS'note::@::bird'
p943
aS'whistle::@::picard'
p944
aS'dioxid::@::lung'
p945
aS'frog::@::skin'
p946
aS'rain::@::porch'
p947
aS'goose::@::neck'
p948
aS'moisture::@::ledge'
p949
aS'oil::@::hair'
p950
aS'water::@::hair'
p951
aS'season::@::layer'
p952
aS'evaluation::@::child'
p953
aS'appearance::@::work'
p954
aS'day::@::idea'
p955
aS'death::@::cult'
p956
aS'day::@::ocean'
p957
aS'commencement::@::generation'
p958
aS'vintage::@::matter'
p959
aS'hawk::@::wing'
p960
aS'everything::@::edge'
p961
aS'figure::@::bed'
p962
aS'don::@::handcart'
p963
aS'cart::@::jasper'
p964
aS'horse::@::goat'
p965
aS'photographer::@::haw'
p966
aS'travelling_photographer::@::haw'
p967
aS'lizard::@::tail'
p968
aS'rabbit::@::ear'
p969
aS'while::toy::@'
p970
aS'field::carry_into^-1::@'
p971
aS'lord::@::man'
p972
aS'moon::@::radiance'
p973
aS'@::signify^-1::child'
p974
aS'child::signify::@'
p975
aS'moth::@::head'
p976
aS'dove::@::head'
p977
aS'butterfly::@::head'
p978
aS'something::@::head'
p979
aS'wind::@::line'
p980
aS'flag::@::town'
p981
aS'consular_flag::@::town'
p982
aS'oak::@::root'
p983
aS'action::@::crown'
p984
aS'inhabitant::@::planter'
p985
aS'field::@::field'
p986
aS'mind::@::neglect'
p987
aS'pigeon::@::wing'
p988
aS'poem::@::word'
p989
aS'angel::@::limb'
p990
aS'daughter::@::look'
p991
aS'potato::@::garlic'
p992
aS'potato::@::instant'
p993
aS'berry::@::use'
p994
aS'potato::@::starch'
p995
aS'radio::@::television'
p996
aS'series::@::fate'
p997
aS'detail::@::reading'
p998
aS'rifle::@::earth'
p999
aS'wisdom::@::secret'
p1000
aS'cloak::@::shoulder'
p1001
aS'strap::@::shoulder'
p1002
aS'shawl::@::shoulder'
p1003
aS'hand::@::arm'
p1004
aS'garment::@::shoulder'
p1005
aS'sigh::@::lip'
p1006
aS'officer::@::shoulder'
p1007
aS'veil::@::hat'
p1008
aS'hand::@::shoulder'
p1009
aS'man::@::face'
p1010
aS'scarf::@::head'
p1011
aS'book::@::lap'
p1012
aS'men::@::shoulder'
p1013
aS'robin::@::breast'
p1014
aS'snake::@::tongue'
p1015
aS'man::@::eye'
p1016
aS'blunderbuss::@::inch'
p1017
aS'judge::@::face'
p1018
aS'eye::@::tongue'
p1019
aS'knife::@::tenderness'
p1020
aS'squirrel::@::eye'
p1021
aS'neighbour::@::dew'
p1022
aS'moon::@::pine'
p1023
aS'pomp::@::eye'
p1024
aS'eye::@::languor'
p1025
aS'doctor::@::eye'
p1026
aS'chuko::@::kuan'
p1027
aS'eye::@::expression'
p1028
aS'face::@::eye'
p1029
aS'swan::@::duck'
p1030
aS'television::@::video'
p1031
aS'october::@::program'
p1032
aS'november::@::program'
p1033
aS'station::@::program'
p1034
aS'station::@::show'
p1035
aS'april::@::program'
p1036
aS'tv::@::film'
p1037
aS'april::@::episode'
p1038
aS'december::@::show'
p1039
aS'october::@::show'
p1040
aS'november::@::interview'
p1041
aS'january::@::episode'
p1042
aS'television::@::program'
p1043
aS'radio::@::announcement'
p1044
aS'february::@::program'
p1045
aS'night::@::program'
p1046
aS'television::@::show'
p1047
aS'cbs::@::show'
p1048
aS'television::@::interview'
p1049
aS'september::@::episode'
p1050
aS'tiger::@::leopard'
p1051
aS'shop::@::city'
p1052
aS'order::@::marsh'
p1053
aS'notice::@::seminal_liquor'
p1054
aS'love::@::iniquity'
p1055
aS'rage::@::valley'
p1056
aS'trout::@::fish'
p1057
aS'notice::@::liquor'
p1058
aS'former::@::lion'
p1059
aS'leaf::@::tree'
p1060
aS'move::@::spirit'
p1061
aS'passion::@::litany'
p1062
aS'grace::@::sin'
p1063
aS'hiding_place::@::dead_leaf'
p1064
aS'misery::@::town'
p1065
aS'zeal_in_anathema::@::true_zeal'
p1066
aS'distress::@::town'
p1067
aS'evidence::@::manuscript_of_work'
p1068
aS'peach_orchard::@::farmer'
p1069
aS'snake::@::plague'
p1070
aS'couch::@::fruit'
p1071
aS'train::@::cattle'
p1072
aS'cart::@::body'
p1073
aS'gel::@::pcr_product'
p1074
aS'truck::@::man'
p1075
aS'column::@::sample'
p1076
aS'truck::@::good'
p1077
aS'computer::@::program'
p1078
aS'boat::@::good'
p1079
aS'cm_column::@::solution'
p1080
aS'column::@::eluate'
p1081
aS'ship::@::good'
p1082
aS'truck::@::people'
p1083
aS'gel::@::microliters'
p1084
aS'factor::@::item'
p1085
aS'top::@::sample'
p1086
aS'truck::@::cargo'
p1087
aS'gel::@::aliquot'
p1088
aS'column::@::mg'
p1089
aS'car::@::coal'
p1090
aS'defendant::@::good'
p1091
aS'boat::@::promontory'
p1092
aS'impatience::@::rascal'
p1093
aS'truck::@::van'
p1094
aS'day::@::share'
p1095
aS'curb::@::stock'
p1096
aS'account::@::individual'
p1097
aS'nail::@::bottom'
p1098
aS'clearness::@::idea'
p1099
aS'string::@::weight'
p1100
aS'anterior_layer::@::diaphragm'
p1101
aS'sin::@::sight'
p1102
aS'history::@::time'
p1103
aS'empire::@::sea'
p1104
aS'one::@::spring'
p1105
aS'van::@::window'
p1106
aS'berg::@::ice'
p1107
aS'vulture::@::wing'
p1108
aS'song::@::flock'
p1109
aS'sovereign::@::nymph_in_london'
p1110
aS'life::@::intensity'
p1111
aS'woman::@::brat'
p1112
aS'angel::@::orb'
p1113
aS'whale::@::blubber'
p1114
aS'crowd::@::gloom'
p1115
aS'others::@::shirt'
p1116
aS'posterity::@::barbarity'
p1117
aS'soft::@::blanket'
p1118
aS'transaction::@::obscurity'
p1119
aS'building::@::shade'
p1120
aS'child_all::@::rude_manger'
p1121
aS'blessed_body::@::linen'
p1122
aS'person::@::ear'
p1123
aS'mystery::@::shadow'
p1124
aS'view::@::reserve'
p1125
aS'mind::@::kind'
p1126
aS'range_of_age::@::darkness'
p1127
aS'minstrel::@::cloak'
p1128
aS'land::@::cloud'
p1129
aS'all::@::manger'
p1130
aS'glove::@::piece'
p1131
aS'whale::@::dolphin'
p1132
aS'willow::@::leaf'
p1133
aS'day::@::peguy'
p1134
aS'rest::@::fresco'
p1135
aS'leave::@::soldier'
p1136
aS'forest::@::tree'
p1137
aS'bomb::@::group'
p1138
aS'bomb::@::agent'
p1139
aS'bowl::@::water'
p1140
aS'face::@::water'
p1141
aS'tank::@::water'
p1142
aS'vessel::@::water'
p1143
aS'stone::@::spring'
p1144
aS'pan::@::water'
p1145
aS'sand::@::water'
p1146
aS'hand::@::ball'
p1147
aS'eye::@::sweat'
p1148
aS'dry_part::@::lifting'
p1149
aS'thief::@::fry'
p1150
aS'eye::@::blood'
p1151
aS'spring::@::water'
p1152
aS'pool::@::water'
p1153
aS'flask::@::quantity'
p1154
aS'tube::@::portion'
p1155
aS'tube::@::mixture'
p1156
aS'ear::@::note'
p1157
aS'flotation::@::laskowski'
p1158
aS'pot::@::blood'
p1159
aS'cheese::@::cheese'
p1160
aS'cabbage::@::carrot'
p1161
aS'cannon::@::ball'
p1162
aS'america::@::crown'
p1163
aS'town::@::city'
p1164
aS'cathedral::@::bell'
p1165
aS'ear::@::word'
p1166
aS'time::@::bell'
p1167
aS'room::@::bell'
p1168
aS'celery::@::stalk'
p1169
aS'clove::@::medium_onion'
p1170
aS'red_pepper::@::onion'
p1171
aS'carrot::@::cup'
p1172
aS'cave::@::water'
p1173
aS'pepper::@::garlic'
p1174
aS'clove_garlic::@::large_onion'
p1175
aS'garlic::@::small_onion'
p1176
aS'chair::@::desk'
p1177
aS'snout::@::order'
p1178
aS'pendulum::@::globule'
p1179
aS'leg::@::feather'
p1180
aS'progress::@::position'
p1181
aS'mother::@::table'
p1182
aS'one::@::behind'
p1183
aS'french::@::canada'
p1184
aS'ray::@::a'
p1185
aS'sherman::@::goldsboro'
p1186
aS'shoulder::@::arm'
p1187
aS'letter::@::stick'
p1188
aS'act::@::impulse'
p1189
aS'snout::@::mouth'
p1190
aS'man::@::desk'
p1191
aS'missionary::@::coast'
p1192
aS'line::@::figure'
p1193
aS'coat::@::back'
p1194
aS'man::@::shoulder'
p1195
aS'clothes::@::chair'
p1196
aS'arm::@::back_of_seat'
p1197
aS'people::@::climb'
p1198
aS'hand::@::wheel'
p1199
aS'blubber::@::flesh'
p1200
aS'shirt::@::back'
p1201
aS'man::@::street'
p1202
aS'coat::@::chair'
p1203
aS'pod::@::middle'
p1204
aS'hair::@::shoulder'
p1205
aS'paint::@::wall'
p1206
aS'skin::@::back'
p1207
aS'coat::@::button'
p1208
aS'existence::@::flood'
p1209
aS'rush::@::collar'
p1210
aS'work::@::reason'
p1211
aS'buffalo::@::eye'
p1212
aS'deer::@::manner'
p1213
aS'enclosure::@::corn'
p1214
aS'dishwasher::@::dish'
p1215
aS'dolphin::@::whale'
p1216
aS'second_plate::@::line'
p1217
aS'force::@::point'
p1218
aS'army::@::contagion'
p1219
aS'life::@::carrion'
p1220
aS'body::@::sin'
p1221
aS'elephant::@::rhinoceros'
p1222
aS'play::@::schoolers'
p1223
aS'margaret::@::offspring'
p1224
aS'mercury::@::surface'
p1225
aS'effect::@::comprehension_among_grader'
p1226
aS'frog::@::foot'
p1227
aS'@::have::flavour'
p1228
aS'man::@::hand'
p1229
aS'palm::@::hand'
p1230
aS'flavour::have^-1::@'
p1231
aS'wind::@::hair'
p1232
aS'technician::@::switch'
p1233
aS'toad::@::tongue'
p1234
aS'finger::@::switch'
p1235
aS'conway::@::dollar'
p1236
aS'frog::@::tongue'
p1237
aS'man::@::butt'
p1238
aS'@::pour_in::cup'
p1239
aS'man::@::wallet'
p1240
aS'haw::@::tintype_photographer'
p1241
aS'tacs::@::grain'
p1242
aS'haw::@::travelling_photographer'
p1243
aS'haw::@::photographer'
p1244
aS'goat::@::horse'
p1245
aS'digit::@::hand'
p1246
aS'nucleus::@::cell'
p1247
aS'intent::@::m'
p1248
aS'reference::@::framework'
p1249
aS'hyperchromatic_nucleus::@::cell'
p1250
aS'hat::@::coat'
p1251
aS'hope::@::pillar'
p1252
aS'cup::@::season'
p1253
aS'blue_eye::@::sun'
p1254
aS'way::@::shirt'
p1255
aS'florence::@::egg'
p1256
aS'breast::@::constable'
p1257
aS'eye::@::egg'
p1258
aS'overcoat::@::brown'
p1259
aS'vest::@::artagnan'
p1260
aS'sir::@::constable'
p1261
aS'eye::@::sun'
p1262
aS'horse::@::lion'
p1263
aS'foot::@::number'
p1264
aS'flock::@::men'
p1265
aS'ball::@::beetle'
p1266
aS'populace::@::cry'
p1267
aS'clerk::@::dragon'
p1268
aS'horse::@::tail'
p1269
aS'cow::@::tail'
p1270
aS'colonist::@::obsession'
p1271
aS'life::@::will'
p1272
aS'stability::@::time'
p1273
aS'cat::@::tail'
p1274
aS'hat::@::magic'
p1275
aS'isaac::@::heifer'
p1276
aS'time::@::stockholder'
p1277
aS'washington::@::bit'
p1278
aS'month::@::benefit'
p1279
aS'fish::@::tail'
p1280
aS'menial::talk_by^-1::@'
p1281
aS'@::go_with^-1::figure'
p1282
aS'pump::@::water'
p1283
aS'wing::@::insect'
p1284
aS'glade::@::surface'
p1285
aS'glade::@::river_surface'
p1286
aS'difference::@::treatment'
p1287
aS'jacket::@::dress'
p1288
aS'knife::@::edge'
p1289
aS'knife::@::surface'
p1290
aS'plane::@::edge'
p1291
aS'scraper::@::surface'
p1292
aS'tool::@::edge'
p1293
aS'sharp_knife::@::edge'
p1294
aS'file::@::end'
p1295
aS'scissors::@::edge'
p1296
aS'white_feather::@::jewel'
p1297
aS'knife::@::side'
p1298
aS'finger::@::surface'
p1299
aS'board::@::top'
p1300
aS'sandpaper::@::edge'
p1301
aS'point::@::jewel'
p1302
aS'tip::@::point'
p1303
aS'voice::@::father'
p1304
aS'end::@::surface'
p1305
aS'scissors::@::skin'
p1306
aS'blade::@::edge'
p1307
aS'knife::@::wax'
p1308
aS'knife::@::end'
p1309
aS'knife::@::plate'
p1310
aS'cup::@::saucer'
p1311
aS'fork::@::plate'
p1312
aS'peg::@::level'
p1313
aS'turn::@::tramway'
p1314
aS'spoon::@::plate'
p1315
aS'rifle::@::rock'
p1316
aS'reek::@::necromancer'
p1317
aS'claw::@::floor'
p1318
aS'teacup::@::saucer'
p1319
aS'cup::@::teeth'
p1320
aS'station::@::transit'
p1321
aS'hoof::@::pavement'
p1322
aS'shower::@::door'
p1323
aS'mortar::@::pavement'
p1324
aS'rain::@::tin_roof'
p1325
aS'foot::@::rug'
p1326
aS'lettuce::@::leaf'
p1327
aS'library::@::book'
p1328
aS'library::@::copy'
p1329
aS'government::@::money'
p1330
aS'government::@::fund'
p1331
aS'room::@::furniture'
p1332
aS'bank::@::money'
p1333
aS'list::@::name'
p1334
aS'library::@::volume'
p1335
aS'source::@::information'
p1336
aS'cell::@::cell'
p1337
aS'city::@::inhabitant'
p1338
aS'country::@::government'
p1339
aS'mind::@::thought'
p1340
aS'country::@::state'
p1341
aS'state::@::abortion'
p1342
aS'time::@::relative_advantage'
p1343
aS'equipment::@::air'
p1344
aS'corporation::@::money'
p1345
aS'home_againe::@::farre_journies'
p1346
aS'library::@::catalogue'
p1347
aS'son::@::man'
p1348
aS'one::@::man'
p1349
aS'child::@::parent'
p1350
aS'men::@::courtesan'
p1351
aS'equity::@::empire'
p1352
aS'people::@::father'
p1353
aS'nation::@::claim'
p1354
aS'laborer::@::billot'
p1355
aS'husband::@::woman'
p1356
aS'permanent_impairment::@::absence'
p1357
aS'impairment::@::absence'
p1358
aS'impairment_for_purpose::@::absence'
p1359
aS'comptroller::@::lieu'
p1360
aS'impairment_of_property::@::absence'
p1361
aS'use::@::operation'
p1362
aS'library::@::state'
p1363
aS'lion::@::dog'
p1364
aS'cat::@::figure'
p1365
aS'mushroom::@::men'
p1366
aS'bacillus::@::power'
p1367
aS'ejaculation::@::nose'
p1368
aS'men::@::hound'
p1369
aS'oasis::@::civilization'
p1370
aS'flash::@::lioness'
p1371
aS'cat::@::dark_figure'
p1372
aS'athene::@::legislation'
p1373
aS'knowledge::@::knowledge'
p1374
aS'animal::@::dog'
p1375
aS'yolk::@::eye'
p1376
aS'heterodoxy::@::zest'
p1377
aS'kwi::@::others'
p1378
aS'bird::@::hansel'
p1379
aS'peter::@::prudence'
p1380
aS'dwarf::@::nurse'
p1381
aS'woman::@::sieve'
p1382
aS'falsehood::@::determination'
p1383
aS'lion::@::head'
p1384
aS'cat::@::back'
p1385
aS'flower::@::head'
p1386
aS'thebe::@::sound'
p1387
aS'phantom::@::city'
p1388
aS'cock::@::shoulder'
p1389
aS'hound::@::throat'
p1390
aS'public::@::call'
p1391
aS'washboard::@::hair'
p1392
aS'venerable_tree::@::branch'
p1393
aS'assassin::@::stage'
p1394
aS'washboard::@::road'
p1395
aS'piston::@::holding'
p1396
aS'scythian::@::noise'
p1397
aS'valley::@::others'
p1398
aS'proportion::@::calling'
p1399
aS'interest::@::birmingham'
p1400
aS'shaft::@::chamber'
p1401
aS'army::@::stamp'
p1402
aS'lion::@::leg'
p1403
aS'horse::@::master'
p1404
aS'owner::@::seat'
p1405
aS'cloud::@::look'
p1406
aS'man::@::diver'
p1407
aS'rice::@::direct'
p1408
aS'storm::@::feather'
p1409
aS'strength::@::leaf'
p1410
aS'farnsworth::@::dog'
p1411
aS'potato::@::eye'
p1412
aS'seville::@::llano'
p1413
aS'arm::@::hand'
p1414
aS'staple::@::bensington'
p1415
aS'reorganization::@::chief'
p1416
aS'line::@::plot'
p1417
aS'celebrity::@::ball'
p1418
aS'player::@::puck'
p1419
aS'hero_of_play::@::action'
p1420
aS'robin::@::wing'
p1421
aS'giant::@::roar'
p1422
aS'word::@::pride'
p1423
aS'mexican::@::gesture'
p1424
aS'male::@::manner'
p1425
aS'henry::@::ground'
p1426
aS'man::@::chair'
p1427
aS'shachnah::@::carpetbag'
p1428
aS'something::@::bark'
p1429
aS'chin::@::confidence'
p1430
aS'neck::@::front'
p1431
aS'head::@::quest'
p1432
aS'besme::@::place'
p1433
aS'one::@::noise'
p1434
aS'hand::@::direction'
p1435
aS'tragedy::@::abruptness'
p1436
aS'heart::@::joy'
p1437
aS'lamb::@::legging'
p1438
aS'earth::@::wood'
p1439
aS'thy::@::love'
p1440
aS'saw::@::edge'
p1441
aS'snake::@::frog'
p1442
aS'hawk::@::bird'
p1443
aS'strenuousness::@::symmetry'
p1444
aS'loss::@::mind'
p1445
aS'neglect::@::mind'
p1446
aS'animal::@::animal'
p1447
aS'remorse::@::mind'
p1448
aS'owl::@::mouse'
p1449
aS'grief::@::mind'
p1450
aS'vulture::@::liver'
p1451
aS'fact::@::mind'
p1452
aS'reflection::@::mind'
p1453
aS'bird::@::bird'
p1454
aS'death::@::mind'
p1455
aS'vietcong::@::force'
p1456
aS'cato::@::roman'
p1457
aS'fish::@::bait'
p1458
aS'@::run_in^-1::hill'
p1459
aS'patient::@::quantity'
p1460
aS'reformer::@::bishop'
p1461
aS'herod::@::antigonus'
p1462
aS'alp::@::rheum'
p1463
aS'@::put^-1::dey'
p1464
aS'patch::star^-1::@'
p1465
aS'@::bring_with::head'
p1466
aS'snake::@::poison'
p1467
aS'earth::@::earth'
p1468
aS'capon::@::roast'
p1469
aS'climb::@::people'
p1470
aS'sofa::@::velvet'
p1471
aS'grass::@::air'
p1472
aS'seat::@::leather'
p1473
aS'nothing::@::elevation'
p1474
aS'nothing::@::volcanic_elevation'
p1475
aS'nothing::@::elevation_for_century'
p1476
aS'light::@::matter'
p1477
aS'hour::@::obstruction'
p1478
aS'fate::@::prey'
p1479
aS'conduct::@::sceptre'
p1480
aS'english::@::sword'
p1481
aS'alexander::@::pin'
p1482
aS'countenance::@::treachery'
p1483
aS'refusal::@::sword'
p1484
aS'jew::@::name'
p1485
aS'husband::@::pistol'
p1486
aS'fate::@::meaning'
p1487
aS'citizen::@::town'
p1488
aS'troop::@::milan'
p1489
aS'rajah::@::territory'
p1490
aS'energy::@::safety'
p1491
aS'endeavour::@::negotiation'
p1492
aS'television::@::wife'
p1493
aS'account::@::patient'
p1494
aS'television::@::woman'
p1495
aS'occasion::@::patient'
p1496
aS'moriah::@::helena'
p1497
aS'street::@::people'
p1498
aS'lanch::@::time'
p1499
aS'day::@::road'
p1500
aS'snake::@::more_people'
p1501
aS'moray::@::eel'
p1502
aS'snake::@::people'
p1503
aS'bit::@::picture'
p1504
aS'moray::@::moray_eel'
p1505
aS'moray::@::more_diver'
p1506
aS'rattlesnake::@::day'
p1507
aS'moray::@::diver'
p1508
aS'wavelet::@::sound'
p1509
aS'slow_wavelet::@::sound'
p1510
aS'van::@::rear'
p1511
aS'neighbor::rely_for::@'
p1512
aS'conclusion::@::solution'
p1513
aS'result::@::p'
p1514
aS'decision::@::result'
p1515
aS'agreement::@::result'
p1516
aS'figure::@::result'
p1517
aS'power::@::cause'
p1518
aS'prayer::go_for::@'
p1519
aS'definition::@::result'
p1520
aS'conclusion::@::result'
p1521
aS'price::@::result'
p1522
aS'@::rely_for^-1::neighbor'
p1523
aS'truth::@::mean'
p1524
aS'point::@::result'
p1525
aS'judgment::@::result'
p1526
aS'principle::@::result'
p1527
aS'@::go_for^-1::prayer'
p1528
aS'individual::@::account'
p1529
aS'stock::@::curb'
p1530
aS'van::@::truck'
p1531
aS'vulture::@::eye'
p1532
aS'raven::@::eye'
p1533
aS'disregard::@::slavery'
p1534
aS'romeo::@::despot'
p1535
aS'chilblain::@::hand'
p1536
aS'brightening::@::way'
p1537
aS'female::@::way'
p1538
aS'tydeus::@::temple'
p1539
aS'fox::@::skunk'
p1540
aS'flame::@::house'
p1541
aS'extremist::@::element_in_country'
p1542
aS'creature::@::creature_on_earth'
p1543
aS'many_parasite::@::accumulation'
p1544
aS'fellow_tribesman::@::beginning'
p1545
aS'sole_guidance::@::herbage'
p1546
aS'other_insect::@::insect'
p1547
aS'own_enemy::@::specie'
p1548
aS'watcher::@::orbit'
p1549
aS'distinction::@::america'
p1550
aS'misunderstanding::@::table'
p1551
aS'car::@::driveway'
p1552
aS'ambulance::@::front'
p1553
aS'one::@::pipe'
p1554
aS'bag::@::bottom'
p1555
aS'inner_end::@::angle'
p1556
aS'end::@::angle'
p1557
aS'jos::@::pocket'
p1558
aS'bed::@::blanket'
p1559
aS'bed::@::clothes'
p1560
aS'shore::@::blue_mountain'
p1561
aS'meal::@::table'
p1562
aS'floor::@::box'
p1563
aS'shore::@::fragment'
p1564
aS'carmenon::@::galleon'
p1565
aS'street::@::dead_body'
p1566
aS'street_of_city::@::corps'
p1567
aS'exercise::@::country'
p1568
aS'chair::@::book'
p1569
aS'peptide::@::approximate'
p1570
aS'table::@::book'
p1571
aS'chair::@::clothes'
p1572
aS'street::@::snow'
p1573
aS'back::@::woman'
p1574
aS'bed::@::table'
p1575
aS'lily::@::waiter'
p1576
aS'italian::@::cole'
p1577
aS'musselburgh::@::army'
p1578
aS'ear::@::marise'
p1579
aS'window::@::shutter'
p1580
aS'choir::@::tower'
p1581
aS'eli::@::sight'
p1582
aS'head::@::mother'
p1583
aS'something::@::lady'
p1584
aS'head::@::mary'
p1585
aS'head::@::washerwoman'
p1586
aS'time::@::cuckoo'
p1587
aS'head::@::habitue'
p1588
aS'folk::@::jim'
p1589
aS'head::@::richard'
p1590
aS'head::@::vinnie'
p1591
aS'head::@::orderly'
p1592
aS'head::@::driver'
p1593
aS'eye::@::impact'
p1594
aS'host::@::embuggers'
p1595
aS'head::@::doctor'
p1596
aS'head::@::blount'
p1597
aS'instant::@::grandma'
p1598
aS'head::@::murgatroyd'
p1599
aS'head::@::dormer'
p1600
aS'blouse::@::button'
p1601
aS'bomber::@::device'
p1602
aS'bottle::@::beer'
p1603
aS'bottle::@::sample'
p1604
aS'bottle::@::cork'
p1605
aS'foundation::@::castle'
p1606
aS'damyer::@::accord'
p1607
aS'mouth::@::word'
p1608
aS'bottle::@::milk'
p1609
aS'can::@::milk'
p1610
aS'bottle::@::solution'
p1611
aS'test_tube::@::medium'
p1612
aS'study::@::imagination'
p1613
aS'expert::@::sum'
p1614
aS'case::@::sheath'
p1615
aS'favor::@::mode'
p1616
aS'hopper::@::coal'
p1617
aS'accordance::@::consent'
p1618
aS'accordance::@::presentment'
p1619
aS'vial::@::drug'
p1620
aS'act::@::birth'
p1621
aS'time::@::steam'
p1622
aS'case::@::ledger'
p1623
aS'proceeding::@::requirement'
p1624
aS'hunting::@::dog'
p1625
aS'money::@::war'
p1626
aS'face::@::sleep'
p1627
aS'ronald::@::phone'
p1628
aS'feature::@::ice'
p1629
aS'product::@::period'
p1630
aS'apple::@::hope'
p1631
aS'one::@::produce'
p1632
aS'hadley::@::approval'
p1633
aS'good::@::demurrage'
p1634
aS'castle::@::cottage'
p1635
aS'literature::@::worker'
p1636
aS'point::@::material'
p1637
aS'country::@::concourse'
p1638
aS'cathedral::@::choir'
p1639
aS'residence::@::company'
p1640
aS'cathedral::@::church'
p1641
aS'temple::@::building'
p1642
aS'house::@::building'
p1643
aS'church::@::house'
p1644
aS'mound::@::ground'
p1645
aS'atmosphere::@::insect'
p1646
aS'church::@::church'
p1647
aS'region_of_art::@::character'
p1648
aS'lord::@::thing'
p1649
aS'church::@::building'
p1650
aS'cloak::@::hat'
p1651
aS'yellow_stomach::@::hilario'
p1652
aS'breast::@::folded_newspaper'
p1653
aS'chest::@::hand'
p1654
aS'chest::@::broom'
p1655
aS'coat::@::neck'
p1656
aS'coat::@::waist'
p1657
aS'jones::@::neck'
p1658
aS'end::@::neck'
p1659
aS'flask::@::flame'
p1660
aS'hand::@::brow'
p1661
aS'crop::@::labour'
p1662
aS'couch::@::arm'
p1663
aS'cell::@::mass'
p1664
aS'table::@::floor'
p1665
aS'room::@::core'
p1666
aS'structure::@::plaza'
p1667
aS'dagger::@::hilt'
p1668
aS'man::@::death'
p1669
aS'arm::@::elbow'
p1670
aS'floor::@::depth'
p1671
aS'eagle::@::beak'
p1672
aS'vulture::@::year'
p1673
aS'woman::@::sword'
p1674
aS'vulture::@::beak'
p1675
aS'vengeance::@::sword'
p1676
aS'resemblance::@::intervention'
p1677
aS'ferry::@::boat'
p1678
aS'fighter::@::plane'
p1679
aS'british_cruiser::@::vessel'
p1680
aS'frigate::@::ship'
p1681
aS'liberal::@::correspondence'
p1682
aS'man::@::time'
p1683
aS'fleet::@::squadron'
p1684
aS'plane::@::ray'
p1685
aS'cruiser::@::ship'
p1686
aS'pirate::@::ship'
p1687
aS'cruiser::@::vessel'
p1688
aS'ship::@::vessel'
p1689
aS'acid::@::ammonia'
p1690
aS'mohammedan::@::communication'
p1691
aS'antigonus::@::seleucus'
p1692
aS'seal::@::stage'
p1693
aS'american_frigate::@::day'
p1694
aS'athenian::@::fleet'
p1695
aS'sea::@::view'
p1696
aS'frog::@::lung'
p1697
aS'tadpole::@::gill'
p1698
aS'frog::@::gill'
p1699
aS'abscess::@::posterior'
p1700
aS'patient::@::mouth'
p1701
aS'larva::@::gill'
p1702
aS'vertebrate::@::lung'
p1703
aS'reptile::@::lung'
p1704
aS'horse::@::side'
p1705
aS'adult::@::lung'
p1706
aS'animal::@::gill'
p1707
aS'insect::@::tube'
p1708
aS'rest::@::nutrition'
p1709
aS'amphibian::@::gill'
p1710
aS'fish::@::gill'
p1711
aS'is::@::unbroke'
p1712
aS'patient::@::mask'
p1713
aS'air::@::nostril'
p1714
aS'glove::@::clothes'
p1715
aS'goat::@::dog'
p1716
aS'sheep::@::young_son'
p1717
aS'woman::@::german'
p1718
aS'sheep::@::man'
p1719
aS'goose::@::brian'
p1720
aS'brace::@::guard'
p1721
aS'hardened_criminal::@::woman'
p1722
aS'hopeless_slave::@::remnant'
p1723
aS'sheep::@::young_man'
p1724
aS'child::@::woman'
p1725
aS'child::@::policeman'
p1726
aS'animal::@::indian'
p1727
aS'flock::@::dun'
p1728
aS'sheep::@::son'
p1729
aS'sheep::@::child'
p1730
aS'swine::@::sinai'
p1731
aS'animal::@::people'
p1732
aS'beast::@::boy'
p1733
aS'wolf::@::the'
p1734
aS'nomad::@::vanika'
p1735
aS'goat::@::leg'
p1736
aS'goose::@::bird'
p1737
aS'writing::@::source'
p1738
aS'fact::@::effect'
p1739
aS'genesis::@::animal'
p1740
aS'while::@::dramatist'
p1741
aS'mother::@::ghuleh'
p1742
aS'horse::@::foot'
p1743
aS'man::@::foot'
p1744
aS'girl::@::foot'
p1745
aS'men::@::foot'
p1746
aS'people::@::foot'
p1747
aS'woman::@::foot'
p1748
aS'dog::@::foot'
p1749
aS'boy::@::foot'
p1750
aS'crowd::@::foot'
p1751
aS'one::@::foot'
p1752
aS'moment::@::foot'
p1753
aS'party::@::foot'
p1754
aS'horse::@::leg'
p1755
aS'child::@::foot'
p1756
aS'person::@::foot'
p1757
aS'foot::@::ground'
p1758
aS'mother::@::foot'
p1759
aS'henry::@::foot'
p1760
aS'paul::@::foot'
p1761
aS'seed::@::foot'
p1762
aS'horse::@::hoof'
p1763
aS'government::@::date'
p1764
aS'wall::@::comb'
p1765
aS'kingfisher::drop_with::@'
p1766
aS'aspiration::@::foot'
p1767
aS'subject::@::date'
p1768
aS'indian::@::fire'
p1769
aS'establishment::@::weight'
p1770
aS'glass::@::experiment'
p1771
aS'horse::@::dainty_hoof'
p1772
aS'horse::@::impatience'
p1773
aS'boat::@::splashing'
p1774
aS'animal::@::movement'
p1775
aS'@::flame^-1::sun'
p1776
aS'kelly::@::attack'
p1777
aS'courier::@::order'
p1778
aS'woman::@::hand'
p1779
aS'child::@::hand'
p1780
aS'hotel::@::accommodation'
p1781
aS'hostelry::@::steed'
p1782
aS'phrase::@::weeden'
p1783
aS'phrase::@::trevett'
p1784
aS'jacket::@::back'
p1785
aS'jacket::@::back_of_chair'
p1786
aS'cloak::@::arm'
p1787
aS'jacket::@::chair'
p1788
aS'shirt::@::shoulder'
p1789
aS'jar::@::plate'
p1790
aS'medium::@::cell'
p1791
aS'rental::@::large_percentage'
p1792
aS'temperature::@::sample'
p1793
aS'dark::@::sample'
p1794
aS'atmosphere::@::culture'
p1795
aS'principal::@::offence'
p1796
aS'jet::@::jet'
p1797
aS'paine::@::pale'
p1798
aS'snow::@::difficulty'
p1799
aS'solution::@::doubt'
p1800
aS'knife::@::handle'
p1801
aS'cloud::@::motion'
p1802
aS'suburb::@::reference'
p1803
aS'governor::@::accounting'
p1804
aS'charge::@::coating'
p1805
aS'flower::@::fruit'
p1806
aS'love::@::esteem'
p1807
aS'influence::@::fear'
p1808
aS'line::@::theme'
p1809
aS'vine::@::cypress'
p1810
aS'majesty::@::minister'
p1811
aS'breath::@::reed'
p1812
aS'lion::@::fox'
p1813
aS'word::@::mind'
p1814
aS'one::be_like^-1::@'
p1815
aS'@::leave::footpath'
p1816
aS'@::sing^-1::lark'
p1817
aS'@::sing^-1::linnet'
p1818
aS'lark::sing::@'
p1819
aS'joy::@::understanding'
p1820
aS'footpath::leave^-1::@'
p1821
aS'thomas_corwin::@::farm'
p1822
aS'corwin::@::farm'
p1823
aS'agency::@::end'
p1824
aS'mass::@::lever'
p1825
aS'movement::@::process'
p1826
aS'missile::@::rocket'
p1827
aS'oak::@::wood'
p1828
aS'world::@::ruin'
p1829
aS'soldier::@::array'
p1830
aS'apparatus::@::consequence'
p1831
aS'people::@::purpose'
p1832
aS'owl::@::eye'
p1833
aS'pistol::@::arm'
p1834
aS'statue::@::tiger'
p1835
aS'crown::@::nothing'
p1836
aS'clamour::@::wall'
p1837
aS'wound::@::month'
p1838
aS'hose::@::road'
p1839
aS'sable::@::side'
p1840
aS'light::@::world'
p1841
aS'perspiration::@::face'
p1842
aS'scene::@::gaze'
p1843
aS'figure::@::score'
p1844
aS'wave::@::side'
p1845
aS'love::@::cave'
p1846
aS'shot::@::ear'
p1847
aS'john::@::church'
p1848
aS'restaurant::@::food'
p1849
aS'skull::@::content'
p1850
aS'corporation::@::fund'
p1851
aS'transfer::@::ovum'
p1852
aS'conqueror::@::tower'
p1853
aS'stomach::@::content'
p1854
aS'local_merchant::@::prize'
p1855
aS'firm::@::equipment'
p1856
aS'citizen::@::fund'
p1857
aS'father::@::land'
p1858
aS'citizen::@::money'
p1859
aS'individual::@::money'
p1860
aS'methionine::@::methyl_group'
p1861
aS'individual::@::fund'
p1862
aS'shop::@::article'
p1863
aS'robin::@::eye'
p1864
aS'quarter::@::lightning'
p1865
aS'pentfield::@::future'
p1866
aS'eye::@::darkness'
p1867
aS'roast::@::capon'
p1868
aS'starch::@::minute'
p1869
aS'salute::@::gun'
p1870
aS'rheum::@::alp'
p1871
aS'thunderbolt::@::glance'
p1872
aS'blast::@::sound'
p1873
aS'point::@::trail'
p1874
aS'flint::@::people'
p1875
aS'sheep::@::animal'
p1876
aS'towage::@::number'
p1877
aS'iv::@::yield'
p1878
aS'primary_result::@::magnetic_property'
p1879
aS'art::@::embalmer'
p1880
aS'result::@::boreas'
p1881
aS'towage::@::number_of_device'
p1882
aS'upon::@::examination_of_animal'
p1883
aS'other_example::@::cotyledon'
p1884
aS'report::@::incentive'
p1885
aS'result::@::viking_property'
p1886
aS'experiment_operation::@::part_experiment'
p1887
aS'other_example::@::cotyledon_of_bean'
p1888
aS'measurement::@::measurement_of_current'
p1889
aS'time::@::audubon'
p1890
aS'reaction::@::louis_xvi'
p1891
aS'freedom::@::idealist'
p1892
aS'upheaval_of_period::@::economic'
p1893
aS'source::@::analysis'
p1894
aS'result::@::magnetic_property'
p1895
aS'shirt::@::coat'
p1896
aS'cap::@::hat'
p1897
aS'tunic::@::toga'
p1898
aS'wagon::@::use'
p1899
aS'waistcoat::@::coat'
p1900
aS'shirt::@::brace'
p1901
aS'vest::@::coat'
p1902
aS'shoulder::@::men'
p1903
aS'mark::@::water'
p1904
aS'cotton_glove::@::glove'
p1905
aS'card::@::quilt'
p1906
aS'sword::@::bow'
p1907
aS'sword::@::wall'
p1908
aS'tiger::@::bear'
p1909
aS'blackbird::@::window'
p1910
aS'host::@::attack'
p1911
aS'flame::@::lady'
p1912
aS'prussian::@::murat'
p1913
aS'tiger::@::beast'
p1914
aS'flower::@::being'
p1915
aS'tiger::@::holmes'
p1916
aS'standard::@::stone'
p1917
aS'ryence::@::meadow'
p1918
aS'van::@::door'
p1919
aS'van::@::van'
p1920
aS'car::@::house'
p1921
aS'car::@::entrance'
p1922
aS'vehicle::@::house'
p1923
aS'car::@::home'
p1924
aS'month::@::emancipation'
p1925
aS'van::@::genootschap'
p1926
aS'van::@::house'
p1927
aS'car::@::hotel'
p1928
aS'stoessel::@::communication'
p1929
aS'steamer::@::arrival'
p1930
aS'car::@::door'
p1931
aS'door::@::van'
p1932
aS'car::@::shop'
p1933
aS'driver::@::turn'
p1934
aS'police_car::@::house'
p1935
aS'difference::@::maze'
p1936
aS'genootschap::@::van'
p1937
aS'ii::@::others'
p1938
aS'considerate_toil::@::matter'
p1939
aS'report::@::statement'
p1940
aS'balloon::@::men'
p1941
aS'vessel::@::ship'
p1942
aS'spangle::@::anything'
p1943
aS'head::@::head'
p1944
aS'furzebush::@::shock'
p1945
aS'cork::@::body'
p1946
aS'cross::@::leg_of_horse'
p1947
aS'thread::@::rod'
p1948
aS'air::@::leg'
p1949
aS'bag::@::bottle'
p1950
aS'hand::@::key'
p1951
aS'front::@::candy'
p1952
aS'dress::@::head'
p1953
aS'misrepresentation::@::father'
p1954
aS'spear::@::bow'
p1955
aS'fact::@::arnold'
p1956
aS'misrepresentation::@::father_of_history'
p1957
aS'beetle::@::wing'
p1958
aS'man::@::palate'
p1959
aS'sledge::@::sand'
p1960
aS'time::@::foot'
p1961
aS'practice::@::road'
p1962
aS'turner::@::state'
p1963
aS'cedar::@::root'
p1964
aS'trout::@::water'
p1965
aS'episode::@::isolation'
p1966
aS'plant::@::ground'
p1967
aS'molecule::@::chain'
p1968
aS'teeth::@::socket'
p1969
aS'cloak::@::front'
p1970
aS'@::give^-1::contribution_from_editor'
p1971
aS'priest::@::handful'
p1972
aS'arab::@::millstone'
p1973
aS'material::carry_by::@'
p1974
aS'@::carry_by^-1::material'
p1975
aS'@::end_behind::ear'
p1976
aS'contribution::give::@'
p1977
aS'god::@::clay'
p1978
aS'water::push^-1::@'
p1979
aS'tank::lower_into^-1::@'
p1980
aS'@::push::water'
p1981
aS'race::@::country'
p1982
aS'race::@::country_of_argolis'
p1983
aS'eagle::@::dove'
p1984
aS'eagle::@::eye'
p1985
aS'eye::@::sky'
p1986
aS'tempest::@::covering'
p1987
aS'excess::@::nothing'
p1988
aS'excess::@::deficient'
p1989
aS'heart::@::veteran'
p1990
aS'eagle::@::head'
p1991
aS'rider::@::pommel'
p1992
aS'time::@::path'
p1993
aS'bee::@::edge'
p1994
aS'troop::@::face'
p1995
aS'inflation::@::percent'
p1996
aS'lark::@::corn'
p1997
aS'plane::@::ocean'
p1998
aS'squadron::@::niagara'
p1999
aS'curtain::@::scene'
p2000
aS'reason::@::phenomenon'
p2001
aS'visitor::@::sofa'
p2002
aS'slate::@::stack'
p2003
aS'alcohol::@::trioxide'
p2004
aS'icicle::@::breast'
p2005
aS'healing::@::soul'
p2006
aS'water::@::eye'
p2007
aS'pen::@::paper'
p2008
aS'head::@::bosom'
p2009
aS'garlic::@::carrot'
p2010
aS'garlic::@::tomato'
p2011
aS'glove::@::thumb'
p2012
aS'cloud::@::people'
p2013
aS'pride::@::word'
p2014
aS'front::@::man'
p2015
aS'place::@::besme'
p2016
aS'direction::@::hand'
p2017
aS'pocket::@::hand'
p2018
aS'manner::@::male'
p2019
aS'confidence::@::chin'
p2020
aS'chair::@::man'
p2021
aS'ground::@::henry'
p2022
aS'front::@::neck'
p2023
aS'quest::@::head'
p2024
aS'way::@::business'
p2025
aS'hat::@::dress'
p2026
aS'nest::@::kendric'
p2027
aS'hand::@::state'
p2028
aS'helicopter::@::crew'
p2029
aS'action::@::loss'
p2030
aS'bystander::@::susan_nipper'
p2031
aS'civilization::@::englishman'
p2032
aS'bystander::@::nipper'
p2033
aS'mob::@::slave'
p2034
aS'uncle::@::friedrich'
p2035
aS'troop::@::cercopithecus'
p2036
aS'bystander::@::astonished_nipper'
p2037
aS'horse::@::head'
p2038
aS'man::@::head'
p2039
aS'committee::@::department'
p2040
aS'arm::@::side'
p2041
aS'@::turn::horse'
p2042
aS'meadow::turn_into^-1::@'
p2043
aS'soulsby::come_upon::@'
p2044
aS'men::@::care'
p2045
aS'player::@::tooth'
p2046
aS'atom::@::lattice'
p2047
aS'mob::@::effort'
p2048
aS'hat::@::back'
p2049
aS'window::@::libba'
p2050
aS'horse::@::meat'
p2051
aS'horse::@::food'
p2052
aS'wild_cattle::@::hide'
p2053
aS'people::@::year'
p2054
aS'people::@::reason'
p2055
aS'time::@::month'
p2056
aS'animal::@::sake'
p2057
aS'flame::@::gas'
p2058
aS'important_witness::@::fault'
p2059
aS'seal::@::skin'
p2060
aS'infant::@::milk'
p2061
aS'vulture::@::heart'
p2062
aS'animal::@::hide'
p2063
aS'people::@::day'
p2064
aS'person::@::period'
p2065
aS'man::@::year'
p2066
aS'elephant::@::ivory'
p2067
aS'stomach::@::matter'
p2068
aS'party::@::day'
p2069
aS'hotel::@::guest'
p2070
aS'building::@::people'
p2071
aS'hotel::@::visitor'
p2072
aS'room::@::men'
p2073
aS'house::@::people'
p2074
aS'hotel::@::tourist'
p2075
aS'hotel::@::people'
p2076
aS'house::@::woman'
p2077
aS'house::@::tenant'
p2078
aS'hospital::@::patient'
p2079
aS'place::@::people'
p2080
aS'college::@::student'
p2081
aS'hotel::@::officer'
p2082
aS'house::@::orphan'
p2083
aS'room::@::family'
p2084
aS'hut::@::men'
p2085
aS'type::@::mating'
p2086
aS'room::@::girl'
p2087
aS'house::@::family'
p2088
aS'head::@::arm'
p2089
aS'heart::@::hand'
p2090
aS'chest::@::jake'
p2091
aS'chest::@::sam'
p2092
aS'abdomen::@::hand'
p2093
aS'chest::@::mark'
p2094
aS'broad_chest::@::arm'
p2095
aS'breast::@::sabre'
p2096
aS'barrel_chest::@::arm'
p2097
aS'ample_chest::@::arm'
p2098
aS'track::@::track'
p2099
aS'stonework_of_jamb::@::nothing'
p2100
aS'string_of_bone::@::cure'
p2101
aS'string::@::cure'
p2102
aS'stonework::@::nothing'
p2103
aS'jacket::@::neck'
p2104
aS'shirt::@::top'
p2105
aS'coat::@::throat'
p2106
aS'forest::@::drapery'
p2107
aS'jacket::@::vest'
p2108
aS'figure::@::tunic'
p2109
aS'cross::@::front'
p2110
aS'reverence::@::meal'
p2111
aS'drink::@::canopy'
p2112
aS'jet::@::gas'
p2113
aS'shaft::@::power'
p2114
aS'flow::@::particle'
p2115
aS'heat::@::gas'
p2116
aS'square::@::water'
p2117
aS'landscape::@::colour'
p2118
aS'knife::@::blade'
p2119
aS'gonorrhea::@::gonococcus'
p2120
aS'foam::@::king'
p2121
aS'rabbit::@::counter'
p2122
aS'knife::@::door'
p2123
aS'company::@::florida'
p2124
aS'name::@::line'
p2125
aS'love::@::elizabeth'
p2126
aS'moth::@::wing'
p2127
aS'loss::@::sing'
p2128
aS'right::@::left'
p2129
aS'freight::@::transhipment'
p2130
aS'locality::@::charge'
p2131
aS'good::@::license'
p2132
aS'onion::@::celery'
p2133
aS'basket::@::capsule'
p2134
aS'jail::@::poor'
p2135
aS'gaol::@::poor'
p2136
aS'succession::@::thing'
p2137
aS'hell::@::idea'
p2138
aS'hell::@::people'
p2139
aS'hell::@::goldwater'
p2140
aS'daylight::@::thought'
p2141
aS'hell::@::gun'
p2142
aS'rest::@::exposure'
p2143
aS'hell::@::way'
p2144
aS'valley::@::war'
p2145
aS'hell::@::story'
p2146
aS'shit::@::god'
p2147
aS'crap::@::thought'
p2148
aS'valley::@::corinthian_war'
p2149
aS'hell::@::fact'
p2150
aS'hell::@::attack'
p2151
aS'hell::@::hour'
p2152
aS'hell::@::something'
p2153
aS'hell::@::savelle'
p2154
aS'hell::@::day'
p2155
aS'hell::@::realization'
p2156
aS'line::@::outburst'
p2157
aS'radio::@::music'
p2158
aS'loudspeaker::@::music'
p2159
aS'house::@::music'
p2160
aS'stereo::@::music'
p2161
aS'speaker::@::music'
p2162
aS'room::@::light'
p2163
aS'television::@::film'
p2164
aS'room::@::voice'
p2165
aS'lip::@::word'
p2166
aS'face::@::smile'
p2167
aS'breaking::@::piece'
p2168
aS'wo::@::beginning'
p2169
aS'ember::@::curl_of_smoke'
p2170
aS'country::@::day'
p2171
aS'other_room::@::voice'
p2172
aS'part::@::vehicle'
p2173
aS'station::@::hour'
p2174
aS'age::@::marriage'
p2175
aS'rate::@::article'
p2176
aS'time::@::depressores'
p2177
aS'period::@::marriage'
p2178
aS'beginning::@::dollar'
p2179
aS'elector::@::protection'
p2180
aS'people::@::ministry'
p2181
aS'man::@::cover'
p2182
aS'redoubt::@::cover'
p2183
aS'suit::@::proceeding'
p2184
aS'robe::@::garment'
p2185
aS'jewel::@::foot'
p2186
aS'shadow::@::body'
p2187
aS'day::@::frigate'
p2188
aS'zeno::@::rebel'
p2189
aS'in::@::leader'
p2190
aS'few_day::@::band'
p2191
aS'troop::@::wind'
p2192
aS'shirt::@::button'
p2193
aS'head::@::hippolyte'
p2194
aS'head::@::fish'
p2195
aS'corn::@::ann'
p2196
aS'head::@::jim'
p2197
aS'head::@::lady'
p2198
aS'head::@::frog'
p2199
aS'head::@::dog'
p2200
aS'head::@::seal'
p2201
aS'head::@::landlady'
p2202
aS'head::@::mouse'
p2203
aS'snake::@::skin'
p2204
aS'half::@::hospital'
p2205
aS'depth::@::woman'
p2206
aS'stream::@::reflection'
p2207
aS'tread::@::foot_in_bosom'
p2208
aS'child::@::germ'
p2209
aS'england::@::eye'
p2210
aS'arm::@::ray'
p2211
aS'skin::@::softness'
p2212
aS'ground::@::sweat'
p2213
aS'snake::@::tail'
p2214
aS'hum::@::wing'
p2215
aS'hum::@::time'
p2216
aS'star::@::light'
p2217
aS'whisper::@::virtue'
p2218
aS'whisper::@::welcome'
p2219
aS'summons::@::thunder'
p2220
aS'spear::@::arm'
p2221
aS'captain::@::vice'
p2222
aS'arrow::@::arm'
p2223
aS'hasan::@::settee'
p2224
aS'spear::@::head'
p2225
aS'pole::@::head'
p2226
aS'flag::@::fort'
p2227
aS'lamb_of_mine::@::heart'
p2228
aS'kohler::@::door'
p2229
aS'torstein::@::door'
p2230
aS'scale::@::wall'
p2231
aS'hurdle::@::point'
p2232
aS'eye::@::subject'
p2233
aS'lash::@::cheek'
p2234
aS'bar::@::head'
p2235
aS'sun::@::autumn'
p2236
aS'meeting::@::particular'
p2237
aS'queen::@::moon'
p2238
aS'heap::@::body'
p2239
aS'lamb::@::breast'
p2240
aS'lance::@::head'
p2241
aS'pedestal::@::horse'
p2242
aS'table::@::card'
p2243
aS'water::@::grotto'
p2244
aS'spoon::@::silver'
p2245
aS'room::@::gold'
p2246
aS'draftsman::@::pay'
p2247
aS'black::@::amount'
p2248
aS'room::@::music'
p2249
aS'class::@::pool'
p2250
aS'period::@::woman'
p2251
aS'time::@::universal_truth'
p2252
aS'loudspeaker_in_temple::@::bhajans'
p2253
aS'teeing::@::stroke'
p2254
aS'system::@::music'
p2255
aS'time::@::truth'
p2256
aS'radio::@::country_music'
p2257
aS'part::@::cell'
p2258
aS'time::@::such_truth'
p2259
aS'jukebox::@::music'
p2260
aS'carbon::@::arc'
p2261
aS'deck::@::music'
p2262
aS'box::@::music'
p2263
aS'loudspeaker::@::bhajans'
p2264
aS'swan::@::approach'
p2265
aS'sword::@::blade'
p2266
aS'relation::@::french'
p2267
aS'marriage::@::relative'
p2268
aS'subcontract::@::contractor'
p2269
aS'partnership::@::resident'
p2270
aS'understanding::@::conventional'
p2271
aS'agreement::@::heir'
p2272
aS'alliance::@::queen'
p2273
aS'contract::@::treasurer'
p2274
aS'treaty::@::state'
p2275
aS'capitulation::@::party'
p2276
aS'sort::@::force'
p2277
aS'alliance::@::england'
p2278
aS'contract::@::plaintiff'
p2279
aS'agreement::@::party'
p2280
aS'league::@::company'
p2281
aS'arrangement::@::party'
p2282
aS'head::@::ormont'
p2283
aS'contract::@::party'
p2284
aS'agreement::@::governor'
p2285
aS'sword::@::guard'
p2286
aS'step::@::soldier'
p2287
aS'box::@::abbot'
p2288
aS'sword::@::policeman'
p2289
aS'tiger::@::elephant'
p2290
aS'dragon::@::clerk'
p2291
aS'relation::@::citizen'
p2292
aS'sympathy::@::prince'
p2293
aS'number::@::foot'
p2294
aS'truck::@::car'
p2295
aS'car::@::car'
p2296
aS'car::@::truck'
p2297
aS'train::@::car'
p2298
aS'ball::@::chest'
p2299
aS'train::@::train'
p2300
aS'car::@::driver'
p2301
aS'stomach::@::equipment'
p2302
aS'body::@::wall'
p2303
aS'defeat::@::industry'
p2304
aS'fist::@::eye'
p2305
aS'spike::@::pearler'
p2306
aS'paradox::@::society'
p2307
aS'comet::@::earth'
p2308
aS'fist::@::jaw'
p2309
aS'car::@::side'
p2310
aS'bullet::@::cabin'
p2311
aS'spike_with_nigger::@::pearler'
p2312
aS'fist::@::mouth'
p2313
aS'foremost_dollar::@::mile'
p2314
aS'settlement::@::year'
p2315
aS'decision::@::moment'
p2316
aS'decision::@::day'
p2317
aS'army::@::state'
p2318
aS'settlement::@::time'
p2319
aS'analysis::@::sand'
p2320
aS'car::@::minute'
p2321
aS'truck::@::minute'
p2322
aS'decision::@::china'
p2323
aS'analysis::@::rock'
p2324
aS'security::@::empire'
p2325
aS'decision::@::period'
p2326
aS'boat::@::hour'
p2327
aS'compromise::@::framework'
p2328
aS'dollar::@::mile'
p2329
aS'toland::@::thinking'
p2330
aS'bird::@::living'
p2331
aS'light::@::gruesome_sportiveness'
p2332
aS'flame::@::socket'
p2333
aS'light::@::sportiveness'
p2334
aS'puck::@::player'
p2335
aS'max::@::chase'
p2336
aS'action::@::hero_of_play'
p2337
aS'ball::@::celebrity'
p2338
aS'action::@::hero'
p2339
aS'yacht::@::sail'
p2340
aS'government::@::authority'
p2341
aS'axe::@::edge'
p2342
aS'lake::@::shore'
p2343
aS'system::@::system'
p2344
aS'voice::@::chief'
p2345
aS'subject::@::brain'
p2346
aS'hair::@::place'
p2347
aS'runner::@::hold'
p2348
aS'bowl::@::exterior'
p2349
aS'box::@::bag'
p2350
aS'leicester::@::bed'
p2351
aS'relation::@::localization'
p2352
aS'box::@::lamp'
p2353
aS'glass_tube::@::needle'
p2354
aS'letter::@::petition'
p2355
aS'circle::@::weight'
p2356
aS'coffin::@::body'
p2357
aS'parenthesis::@::number'
p2358
aS'veranda::@::man'
p2359
aS'solution::@::film'
p2360
aS'explanation::@::process'
p2361
aS'cannon::@::bronze'
p2362
aS'mount::@::smoke'
p2363
aS'throne::@::plantagenet'
p2364
aS'fence::@::winslow'
p2365
aS'law::@::ignorance'
p2366
aS'depth::@::ring'
p2367
aS'depth::@::multitudinous_ring'
p2368
aS'castle::@::king'
p2369
aS'time::@::broake'
p2370
aS'heart::@::pressure'
p2371
aS'water::@::day'
p2372
aS'angle::@::men'
p2373
aS'shoal_water::@::day'
p2374
aS'savage_boat::@::day'
p2375
aS'authority::@::constitution'
p2376
aS'carmes::@::cardinal'
p2377
aS'displeasure::@::god'
p2378
aS'city::@::alexander'
p2379
aS'conveniente_time::@::broake'
p2380
aS'boat::@::day'
p2381
aS'gang::@::cargo'
p2382
aS'roosevelt::@::family'
p2383
aS'recent_gale::@::bird'
p2384
aS'men::@::capitol'
p2385
aS'archbishop::@::length'
p2386
aS'assemblage::@::robert'
p2387
aS'brackley::@::teena'
p2388
aS'chair::@::sofa'
p2389
aS'brederode::@::nell'
p2390
aS'beauvoir::@::kilburn'
p2391
aS'member::@::truth'
p2392
aS'gale_on_shore::@::bird'
p2393
aS'strong_gale::@::bird'
p2394
aS'train::@::night'
p2395
aS'gale::@::bird'
p2396
aS'class::@::base'
p2397
aS'plowson::@::talboys'
p2398
aS'square::@::mind'
p2399
aS'beginning::@::violence'
p2400
aS'pool::@::thread'
p2401
aS'harbor::@::boat'
p2402
aS'hospital::@::half'
p2403
aS'coat::@::dress'
p2404
aS'mandatory_rule::@::infant'
p2405
aS'plate::@::indian'
p2406
aS'silver::@::woman'
p2407
aS'coat::@::garment'
p2408
aS'louis::@::turk'
p2409
aS'gentleman::@::coat'
p2410
aS'jones::@::voice'
p2411
aS'garment::@::coat'
p2412
aS'rule::@::rule'
p2413
aS'habit::@::coat'
p2414
aS'garment::@::jeffersonianism'
p2415
aS'cockroach::@::feeler'
p2416
aS'cottage::@::day'
p2417
aS'ten::@::whirlwind'
p2418
aS'machine::@::day'
p2419
aS'cottage::@::house'
p2420
aS'window::bar_with::@'
p2421
aS'event::@::female'
p2422
aS'cloud::@::tree'
p2423
aS'flower::@::leaf'
p2424
aS'vault::@::deck'
p2425
aS'movement::@::german'
p2426
aS'part::@::leaf'
p2427
aS'cottage_of_day::@::house'
p2428
aS'man::@::rock'
p2429
aS'sithron::@::soldier'
p2430
aS'@::bar_with^-1::window'
p2431
aS'hospital::@::marblehead'
p2432
aS'@::start_at^-1::detail'
p2433
aS'coyote::@::horse'
p2434
aS'detail::start_at::@'
p2435
aS'cynic::@::ideal'
p2436
aS'transplant::@::apartment'
p2437
aS'people::@::place'
p2438
aS'year::@::year'
p2439
aS'elephant::@::horse'
p2440
aS'man::@::king'
p2441
aS'crowd::@::place'
p2442
aS'lady::@::rush'
p2443
aS'one::@::incident'
p2444
aS'monk::@::mind'
p2445
aS'calf::@::horse'
p2446
aS'idea::@::mother'
p2447
aS'latter::@::musician'
p2448
aS'idea::@::nation'
p2449
aS'dog::@::bush'
p2450
aS'dickens::@::dolby'
p2451
aS'elephant::@::tusk'
p2452
aS'elephant::@::mighty_tusk'
p2453
aS'miner::@::quartz'
p2454
aS'urn::@::coffin'
p2455
aS'tribe::@::purpose'
p2456
aS'animal::@::skin'
p2457
aS'elm::@::tree'
p2458
aS'tree::@::tree'
p2459
aS'socialist::@::opponent'
p2460
aS'city::@::facility'
p2461
aS'great_dependence::@::child'
p2462
aS'bad_feeling::@::indian'
p2463
aS'feeling::@::indian'
p2464
aS'population::@::minority'
p2465
aS'blood::@::people'
p2466
aS'dependence::@::child'
p2467
aS'authority::@::christian'
p2468
aS'plate::@::object'
p2469
aS'fork::@::end'
p2470
aS'foot::@::weight'
p2471
aS'prop::@::wall'
p2472
aS'fox::@::wolf'
p2473
aS'goat::@::animal'
p2474
aS'bus::@::engine'
p2475
aS'helicopter::@::engine'
p2476
aS'homoptera::@::bird'
p2477
aS'seal::@::vermin'
p2478
aS'insect::@::variety'
p2479
aS'mammal::@::animal'
p2480
aS'animal::@::guidance'
p2481
aS'herring::@::whale'
p2482
aS'population::@::large_fish'
p2483
aS'bush::@::sole_guidance'
p2484
aS'egg::@::animal'
p2485
aS'school_of_fish::@::large_fish'
p2486
aS'specie_of_property::@::own_enemy'
p2487
aS'egg_of_specie::@::specie'
p2488
aS'tragedy_of_man::@::irrational_passion'
p2489
aS'negro::@::type_from_salesman'
p2490
aS'inexperienced_innovator::@::adventurer'
p2491
aS'man::@::insect'
p2492
aS'deer::@::many_foe'
p2493
aS'specie::@::aquatic_bird'
p2494
aS'negro::@::type_of_exploiter'
p2495
aS'horse::@::beast'
p2496
aS'feast::@::kite'
p2497
aS'week::@::murder'
p2498
aS'example::@::customer'
p2499
aS'reason::@::student'
p2500
aS'fear::@::oar'
p2501
aS'other_conception::@::conception'
p2502
aS'reason::@::pupil'
p2503
aS'time::@::story'
p2504
aS'angle::@::efficiency'
p2505
aS'tree::@::one'
p2506
aS'afternoon::@::listener'
p2507
aS'purpose::@::mother'
p2508
aS'variety::@::student'
p2509
aS'day::@::reference'
p2510
aS'year::@::bill'
p2511
aS'time::@::france'
p2512
aS'week::@::acquaintance'
p2513
aS'century::@::amount'
p2514
aS'time::@::question'
p2515
aS'horse::@::cow'
p2516
aS'member::@::time'
p2517
aS'lopez::@::hoyos'
p2518
aS'specimen::@::race'
p2519
aS'will::@::duty'
p2520
aS'member::@::ash'
p2521
aS'inner::@::limitation'
p2522
aS'merchant::@::hero'
p2523
aS'horse::@::earth'
p2524
aS'pleasure::@::pleasure'
p2525
aS'thousand::@::administration'
p2526
aS'art::@::medium'
p2527
aS'being::@::emphasis'
p2528
aS'football::@::shark'
p2529
aS'distance::@::foot'
p2530
aS'bungay::@::stick'
p2531
aS'horse::@::orderly'
p2532
aS'horse::@::pig'
p2533
aS'harvest::@::berry'
p2534
aS'church::@::theresa'
p2535
aS'hotel::@::person'
p2536
aS'company::@::foot'
p2537
aS'day::@::garment'
p2538
aS'rate::@::acre'
p2539
aS'back::@::set'
p2540
aS'top::@::lava'
p2541
aS'jacket::@::collar'
p2542
aS'jar::@::glass'
p2543
aS'prince_murat::@::door'
p2544
aS'library::@::afternoon'
p2545
aS'pheasant::@::bird'
p2546
aS'time::@::delegate'
p2547
aS'cloud::@::boy'
p2548
aS'child::@::mother'
p2549
aS'thorpe::@::butler'
p2550
aS'sheep::@::dog'
p2551
aS'cat::@::dog'
p2552
aS'child::@::croaking'
p2553
aS'wind::@::wit'
p2554
aS'woman::@::satan'
p2555
aS'moon::@::dog'
p2556
aS'coast::@::northman'
p2557
aS'night::@::dog'
p2558
aS'lansing::@::misgiving'
p2559
aS'coast::@::master'
p2560
aS'life::@::selingman'
p2561
aS'deal::@::cent'
p2562
aS'life::@::cat'
p2563
aS'commerce::@::privateer'
p2564
aS'life::@::dog'
p2565
aS'sheep::@::leg'
p2566
aS'herd::@::hill'
p2567
aS'sheep::@::hill'
p2568
aS'cattle::@::grass'
p2569
aS'shirt::@::robe'
p2570
aS'turn::@::savage_ferocity'
p2571
aS'lionel::@::passion'
p2572
aS'serpent::@::crest'
p2573
aS'end::@::smoke'
p2574
aS'turn::@::ferocity'
p2575
aS'snake::@::fang'
p2576
aS'aietes::@::rage'
p2577
aS'jew::@::responsibility'
p2578
aS'sword::@::spear'
p2579
aS'sword::@::pride'
p2580
aS'lance::@::priest'
p2581
aS'others::@::someone'
p2582
aS'truck::@::motor'
p2583
aS'unfamiliarity::@::word'
p2584
aS'crow::do::@'
p2585
aS'majority::@::antiseptic'
p2586
aS'whale::@::oil'
p2587
aS'majesty::@::ingenuity'
p2588
aS'goldsmith::@::prose'
p2589
aS'action::@::sake'
p2590
aS'people::@::child'
p2591
aS'gardiner::@::faith'
p2592
aS'cattle::@::hide'
p2593
aS'tree::@::fruit'
p2594
aS'posterity::@::quality'
p2595
aS'thought::@::dress'
p2596
aS'property::@::purpose'
p2597
aS'other_work::@::delicacy'
p2598
aS'such_document::@::merit'
p2599
aS'asset::@::purpose'
p2600
aS'many_people::@::child'
p2601
aS'work::@::delicacy'
p2602
aS'document::@::merit'
p2603
aS'beggar::@::wall'
p2604
aS'willow::@::wood'
p2605
aS'weed::@::slav'
p2606
aS'subject::@::allusion'
p2607
aS'mass::@::dutch'
p2608
aS'time::@::tree'
p2609
aS'iii::@::whosoever'
p2610
aS'deserving::@::painter'
p2611
aS'intelligence::@::wisdom'
p2612
aS'john_iii::@::whosoever'
p2613
aS'xiii::@::prophet'
p2614
aS'figure::@::personage'
p2615
aS'potato::@::easterner'
p2616
aS'tree::@::grace'
p2617
aS'davidov::@::heat'
p2618
aS'apple::@::banana'
p2619
aS'prisoner::@::barrier'
p2620
aS'region::@::roughness'
p2621
aS'forsyth::@::view'
p2622
aS'book::@::eye'
p2623
aS'due::@::heart'
p2624
aS'beaver::@::fur'
p2625
aS'jehovah::@::moses'
p2626
aS'party::@::country'
p2627
aS'shortage::@::surplus'
p2628
aS'pallavas::@::period'
p2629
aS'mythology::@::century'
p2630
aS'birch::@::pine'
p2631
aS'birch::@::tree'
p2632
aS'circumstance::@::blood'
p2633
aS'balm::@::kindness'
p2634
aS'birch::@::other_tree'
p2635
aS'bomber::@::bomb'
p2636
aS'pilot::@::bomb'
p2637
aS'government::@::gold'
p2638
aS'men::@::wagon'
p2639
aS'deficient::@::oxygen'
p2640
aS'ship::@::cargo'
p2641
aS'authority::make_by^-1::@'
p2642
aS'plane::@::bomb'
p2643
aS'plague::@::blind'
p2644
aS'hettites::@::ground'
p2645
aS'automobile::@::garage'
p2646
aS'invitation::@::quarter'
p2647
aS'bowl::@::top'
p2648
aS'box::@::inside'
p2649
aS'cathedral::@::slope'
p2650
aS'bill::@::measure'
p2651
aS'box::@::side'
p2652
aS'men::@::side'
p2653
aS'man::@::side'
p2654
aS'child::@::side'
p2655
aS'body::@::side'
p2656
aS'field::@::side'
p2657
aS'head::@::top'
p2658
aS'boy::@::side'
p2659
aS'plate::@::top'
p2660
aS'mass::@::side'
p2661
aS'acre::@::side'
p2662
aS'book::@::shelf'
p2663
aS'portion::@::side'
p2664
aS'man::@::ground'
p2665
aS'piece::@::top'
p2666
aS'bar::@::end'
p2667
aS'base::@::side'
p2668
aS'mattress::@::top'
p2669
aS'vine::@::spring'
p2670
aS'pride::@::cowardice'
p2671
aS'christianity::@::judea'
p2672
aS'god::@::church'
p2673
aS'negro::@::slave'
p2674
aS'cedar::@::wood'
p2675
aS'chisel::@::edge'
p2676
aS'coat::@::fur'
p2677
aS'road::@::velvet_sward'
p2678
aS'machine::@::breast'
p2679
aS'apron::@::lace'
p2680
aS'road::@::sward'
p2681
aS'collar::@::fur'
p2682
aS'collar::@::lace'
p2683
aS'coat::@::band'
p2684
aS'petticoat::@::lace'
p2685
aS'cap::@::lace'
p2686
aS'hem::@::band'
p2687
aS'top::@::lace'
p2688
aS'sleeve::@::pretty_lace'
p2689
aS'coat::@::sleeve'
p2690
aS'head::@::ear'
p2691
aS'desk::@::chair'
p2692
aS'mouth::@::snout'
p2693
aS'a::@::ray'
p2694
aS'stick::@::letter'
p2695
aS'feather::@::leg'
p2696
aS'figure::@::line'
p2697
aS'canada::@::french'
p2698
aS'arm::@::shoulder'
p2699
aS'bird::@::head'
p2700
aS'oriole::@::near'
p2701
aS'bird::@::surface'
p2702
aS'thousand::@::sweet'
p2703
aS'eagle::@::victor'
p2704
aS'butterfly::@::field'
p2705
aS'eagle::@::top'
p2706
aS'flag::@::men'
p2707
aS'sail::@::wave'
p2708
aS'bird::@::yard'
p2709
aS'flag::@::building'
p2710
aS'bird::@::tree'
p2711
aS'bird::@::branch'
p2712
aS'curse::@::head'
p2713
aS'english_newspaper::@::simplicity'
p2714
aS'bird::@::twig'
p2715
aS'society::@::paradox'
p2716
aS'falcon::@::wing'
p2717
aS'fighter::@::aircraft'
p2718
aS'league::@::train'
p2719
aS'soldier::@::prisoner'
p2720
aS'troop::@::train'
p2721
aS'reason::@::man'
p2722
aS'favour::@::prize'
p2723
aS'food::@::jackal'
p2724
aS'reason::@::young_man'
p2725
aS'shilling::@::soldier'
p2726
aS'veneering::@::tippins'
p2727
aS'space::@::ship'
p2728
aS'combatant::@::henry'
p2729
aS'galleon::@::convoy'
p2730
aS'time::@::horse'
p2731
aS'people::@::krigler'
p2732
aS'warship::@::ship'
p2733
aS'fighter::@::bomber'
p2734
aS'foot::@::beast'
p2735
aS'sandy::@::stretch'
p2736
aS'analysis_of_frame::@::moment'
p2737
aS'flood::@::foot'
p2738
aS'hair::@::bottom'
p2739
aS'day::@::length'
p2740
aS'wave::@::tide'
p2741
aS'creature::@::bottom'
p2742
aS'bruce::@::dawn'
p2743
aS'detroit::@::anchor'
p2744
aS'hammer::@::anvil'
p2745
aS'change::@::vice'
p2746
aS'footstep::@::stair'
p2747
aS'hoof::@::ground'
p2748
aS'heel::@::pavement'
p2749
aS'hoof::@::road'
p2750
aS'call::@::air'
p2751
aS'bell::@::air'
p2752
aS'foot::@::pavement'
p2753
aS'change::@::fact'
p2754
aS'laugh::@::night_air'
p2755
aS'bell::@::arrival'
p2756
aS'report_of_gun::@::air'
p2757
aS'step::@::stair'
p2758
aS'cry::@::night'
p2759
aS'report::@::air'
p2760
aS'sharp_crack::@::air'
p2761
aS'sound::@::air'
p2762
aS'call::@::high_air'
p2763
aS'metal_of_shoe::@::road'
p2764
aS'step::@::consciousness'
p2765
aS'oak::@::pine'
p2766
aS'oak::@::tree'
p2767
aS'influence::@::use'
p2768
aS'dip::@::sandstone'
p2769
aS'lagrange::@::latter'
p2770
aS'one::@::standpoint'
p2771
aS'exposure::@::rash'
p2772
aS'owl::@::falcon'
p2773
aS'men::@::water'
p2774
aS'mother::@::girl'
p2775
aS'arab::@::bird'
p2776
aS'pear::@::apple'
p2777
aS'night::@::blossom'
p2778
aS'thing::@::fruit'
p2779
aS'blueberry::@::summer'
p2780
aS'cutting::@::root'
p2781
aS'phone::@::number'
p2782
aS'telephone::@::number'
p2783
aS'echo::@::door'
p2784
aS'loud::@::alarm'
p2785
aS'bell::@::interval'
p2786
aS'phone::@::emergency_number'
p2787
aS'grandson::@::house'
p2788
aS'computer::@::information'
p2789
aS'restaurant::@::owner'
p2790
aS'archangel::@::help'
p2791
aS'praise::@::restorer'
p2792
aS'robin::@::thrush'
p2793
aS'year::@::tragedy'
p2794
aS'soprano::@::encore'
p2795
aS'lesson::@::hour'
p2796
aS'growth::@::aristotle'
p2797
aS'crow::@::lark'
p2798
aS'name::@::representative'
p2799
aS'shirt::@::front'
p2800
aS'dress::@::front'
p2801
aS'tract::@::delta_of_indus'
p2802
aS'snake::@::head'
p2803
aS'representation::@::shaft'
p2804
aS'spray::@::door'
p2805
aS'oyster::@::lovely_butter'
p2806
aS'cavalry_of_batavians::@::armor'
p2807
aS'fish::@::half'
p2808
aS'wind::@::mountain'
p2809
aS'marise::@::ear'
p2810
aS'bamboo_stake::@::ground'
p2811
aS'squirrel::@::tail'
p2812
aS'fall::@::circumstance'
p2813
aS'occasion::@::auspex'
p2814
aS'spirit::@::influence'
p2815
aS'mildred::@::dress'
p2816
aS'roc::@::sailor'
p2817
aS'coast::@::control'
p2818
aS'chafing::@::forearm'
p2819
aS'opinion::@::brown'
p2820
aS'world::@::point'
p2821
aS'work::@::supervision'
p2822
aS'discharge::@::microscope'
p2823
aS'result::@::point'
p2824
aS'recovery::@::treatment'
p2825
aS'drop::@::microscope'
p2826
aS'member::@::sky'
p2827
aS'deed::@::ray'
p2828
aS'result::@::gentleman'
p2829
aS'sword::@::grip'
p2830
aS'letter::@::hand'
p2831
aS'inhabitant::@::ally'
p2832
aS'house::@::fox'
p2833
aS'tiger::@::dog'
p2834
aS'mother::@::child'
p2835
aS'tiger::@::leg'
p2836
aS'party::@::mile'
p2837
aS'gaugo::@::ox'
p2838
aS'air::@::bit'
p2839
aS'man::@::sensitivity'
p2840
aS'edmunds::@::time'
p2841
aS'apartment::@::average'
p2842
aS'villa::@::month'
p2843
aS'people::@::one'
p2844
aS'willow::@::branch'
p2845
aS'passage::@::volume'
p2846
aS'man::@::barrel'
p2847
aS'time::@::chain'
p2848
aS'asia::@::night'
p2849
aS'queenie::@::road'
p2850
aS'bow::@::string'
p2851
aS'group::@::enclave'
p2852
aS'matter::@::brain'
p2853
aS'physic::@::cupboard'
p2854
aS'hair::@::temple'
p2855
aS'bed::@::object'
p2856
aS'grave::@::others'
p2857
aS'highway::@::ship'
p2858
aS'end::@::tipping'
p2859
aS'bed::@::rosamond'
p2860
aS'bed::@::people'
p2861
aS'water::@::home'
p2862
aS'throat::@::voice'
p2863
aS'bed::@::master'
p2864
aS'strain::@::man'
p2865
aS'brother::@::prince'
p2866
aS'exception::@::surprise'
p2867
aS'end::@::log'
p2868
aS'wall::@::vixen'
p2869
aS'bottle::@::label'
p2870
aS'volunteer::@::shipping'
p2871
aS'wall::@::poster'
p2872
aS'metal::@::ease'
p2873
aS'box::@::edge'
p2874
aS'truck::@::ballhaus'
p2875
aS'house::@::street'
p2876
aS'house::@::road'
p2877
aS'box::@::key'
p2878
aS'smile::@::lip'
p2879
aS'shadow::@::expanse'
p2880
aS'huge_shadow::@::expanse'
p2881
aS'fly::@::water'
p2882
aS'moth::@::lamp'
p2883
aS'color::@::cheek'
p2884
aS'butterfly::@::flower'
p2885
aS'boat::@::wave'
p2886
aS'boat::@::wave_like_shell'
p2887
aS'firelight_shadow::@::wall'
p2888
aS'lunatic::@::head'
p2889
aS'light_from_fire::@::picture_of_mirror'
p2890
aS'ship_of_minos::@::water'
p2891
aS'balloon::@::grave'
p2892
aS'troop::@::surface'
p2893
aS'devotee::@::ember'
p2894
aS'shadow::@::ground'
p2895
aS'sprig::@::interval'
p2896
aS'cannon::@::entrance'
p2897
aS'castle::@::site'
p2898
aS'cathedral::@::marble'
p2899
aS'palace::@::site'
p2900
aS'cathedral::@::site'
p2901
aS'seat_at_hill::@::scale'
p2902
aS'christianity::@::philosophy'
p2903
aS'hammond::@::promise'
p2904
aS'coat::@::collar'
p2905
aS'turk::@::diminution'
p2906
aS'flap::@::inwards'
p2907
aS'people::@::feeling'
p2908
aS'maclaine::@::knowledge'
p2909
aS'stone::@::hand'
p2910
aS'intestine::@::production'
p2911
aS'cottage::@::guest'
p2912
aS'lantern::@::sasa'
p2913
aS'difference::@::contrast'
p2914
aS'house::@::men'
p2915
aS'tent::@::space'
p2916
aS'city::@::soldier'
p2917
aS'bee::@::humanity'
p2918
aS'swallow::@::privateer'
p2919
aS'bee::@::surplus'
p2920
aS'eye::@::gentian'
p2921
aS'ghost::@::head'
p2922
aS'pigeon::@::mary'
p2923
aS'deer::@::creature'
p2924
aS'eagle::@::pinion'
p2925
aS'eagle::@::wing'
p2926
aS'flower::@::mind'
p2927
aS'bird::@::wing'
p2928
aS'@::acquire_by^-1::plumage'
p2929
aS'@::undergo^-1::larva'
p2930
aS'cheek::@::bloom'
p2931
aS'larva::undergo::@'
p2932
aS'negro::@::sidewalk'
p2933
aS'thought::@::delight'
p2934
aS'eagle::@::high'
p2935
aS'change::accompany_by::@'
p2936
aS'vulture::@::flight'
p2937
aS'case::take_in^-1::@'
p2938
aS'sable::@::colour'
p2939
aS'@::take_in::case'
p2940
aS'elephant::@::tiger'
p2941
aS'citizen::@::relation'
p2942
aS'prince::@::sympathy'
p2943
aS'eye::@::touch'
p2944
aS'frog::@::eye'
p2945
aS'animal::@::mean'
p2946
aS'hammer::@::head'
p2947
aS'music::@::ear'
p2948
aS'beat::@::ear'
p2949
aS'artist::@::limit'
p2950
aS'boy::@::dhenki'
p2951
aS'revolution::@::atmosphere_of_court'
p2952
aS'whale::@::calf'
p2953
aS'sound::@::ear'
p2954
aS'nature::@::being'
p2955
aS'fire::@::ship'
p2956
aS'word::@::brain'
p2957
aS'blood::@::temple'
p2958
aS'word::@::ear'
p2959
aS'heart::@::ear'
p2960
aS'revolution::@::small_sphere'
p2961
aS'word::@::head'
p2962
aS'thought::@::head'
p2963
aS'heart::@::breast'
p2964
aS'pulse::@::ear'
p2965
aS'head::@::side'
p2966
aS'cap::@::head'
p2967
aS'hat::@::back_of_head'
p2968
aS'cap::@::side'
p2969
aS'glass::@::end'
p2970
aS'hand::@::pocket'
p2971
aS'hair::@::back'
p2972
aS'hair::@::top'
p2973
aS'hand::@::side'
p2974
aS'balance::@::side'
p2975
aS'hat::@::side'
p2976
aS'hand::@::back'
p2977
aS'trunk::@::side'
p2978
aS'knife::@::floor'
p2979
aS'hat::@::top'
p2980
aS'up::@::doll'
p2981
aS'horse::@::saddle'
p2982
aS'not::@::woman'
p2983
aS'prince::@::debt'
p2984
aS'hand::@::mountain'
p2985
aS'cause::@::friend'
p2986
aS'men::@::pack'
p2987
aS'one::@::timber_leg'
p2988
aS'teeth::@::crash'
p2989
aS'hand::@::mountain_of_flesh'
p2990
aS'follower::@::exterior_vesture'
p2991
aS'form::@::skirt'
p2992
aS'pompeii::@::volcanic_ash'
p2993
aS'heart::@::jealousy'
p2994
aS'tackle::@::last_support'
p2995
aS'men::@::fury'
p2996
aS'wind::@::madness'
p2997
aS'cause::@::hollow_friend'
p2998
aS'ranchhouse::@::night'
p2999
aS'side::@::wall'
p3000
aS'hand::@::lovel'
p3001
aS'hotel::@::lady'
p3002
aS'zurich::@::empress'
p3003
aS'night::@::plant'
p3004
aS'rear::@::aunt'
p3005
aS'night::@::gould'
p3006
aS'night::@::south'
p3007
aS'activity::@::thing'
p3008
aS'energy::@::world'
p3009
aS'victor::@::andalusia'
p3010
aS'eye::@::language'
p3011
aS'recognition::@::object'
p3012
aS'force::@::brain'
p3013
aS'bombardment::@::hill'
p3014
aS'effect::@::system'
p3015
aS'fire::@::hull'
p3016
aS'method::@::circumstance'
p3017
aS'lion::@::rabbit'
p3018
aS'dog::@::cat'
p3019
aS'woman::@::men'
p3020
aS'programme::@::beginning'
p3021
aS'ship::@::shipyard'
p3022
aS'satellite::@::centre'
p3023
aS'pilate::@::beginning'
p3024
aS'nikolai::@::bunk'
p3025
aS'missile::@::vehicle'
p3026
aS'first_steamboat::@::pittsburgh'
p3027
aS'german::@::point'
p3028
aS'playwright::@::man_of_independence'
p3029
aS'oak::@::acorn'
p3030
aS'oven::@::gas'
p3031
aS'head::@::tape'
p3032
aS'pearler::@::spike_with_nigger'
p3033
aS'parent::@::child'
p3034
aS'poplar::@::tree'
p3035
aS'dog::@::mine'
p3036
aS'daylight::@::idea'
p3037
aS'hell::@::mother'
p3038
aS'sense::@::fellow'
p3039
aS'hell::@::experience'
p3040
aS'daylight::@::someone'
p3041
aS'shit::@::guy'
p3042
aS'weber::@::bureaucracy'
p3043
aS'hell::@::hector'
p3044
aS'shit::@::christ'
p3045
aS'hell::@::death'
p3046
aS'cougar::@::doubt'
p3047
aS'game::@::ring'
p3048
aS'hell::@::noise'
p3049
aS'hell::@::one'
p3050
aS'robe::@::shirt'
p3051
aS'death::@::sun'
p3052
aS'interest::@::everything'
p3053
aS'rule::@::christian'
p3054
aS'interruption::@::ceremony'
p3055
aS'snake::@::mouth'
p3056
aS'mind::@::square'
p3057
aS'squirrel::@::foot'
p3058
aS'berry::@::harvest'
p3059
aS'plane::@::air'
p3060
aS'@::derive_from::collision'
p3061
aS'isabelle::watch::@'
p3062
aS'hare::@::hill'
p3063
aS'theresa::@::church'
p3064
aS'fragment::@::interval'
p3065
aS'stiffness::wear::@'
p3066
aS'television::@::series'
p3067
aS'program::@::interview'
p3068
aS'station::@::series'
p3069
aS'television::@::version'
p3070
aS'radio::@::show'
p3071
aS'radio::@::program'
p3072
aS'theologian::@::forgiveness'
p3073
aS'reading::@::lack'
p3074
aS'alternative_reading::@::lack'
p3075
aS'principle::@::beginning'
p3076
aS'@::announce::arrival'
p3077
aS'truck::@::horn'
p3078
aS'car::@::herd'
p3079
aS'motorist::@::horn'
p3080
aS'cobb::@::horn'
p3081
aS'@::launch_amid^-1::rest'
p3082
aS'jump::make^-1::@'
p3083
aS'horn::@::time'
p3084
aS'driver::@::horn'
p3085
aS'car::@::horn'
p3086
aS'rest::launch_amid::@'
p3087
aS'line::@::sentiment'
p3088
aS'mountain::@::cry'
p3089
aS'cabinet::@::screech'
p3090
aS'line::@::international_sentiment'
p3091
aS'darkness::@::shriek'
p3092
aS'trumpet::@::advance'
p3093
aS'side::@::voice'
p3094
aS'incarnation::@::sentiment'
p3095
aS'villa::@::garden'
p3096
aS'tree::@::place'
p3097
aS'humboldt::@::chart_of_valley'
p3098
aS'neat_factory::@::landscape'
p3099
aS'beach::@::gainsborough_hat'
p3100
aS'sheet::@::retreat_for_canada'
p3101
aS'tent::@::place'
p3102
aS'corps::@::ugly_blotch'
p3103
aS'growth::@::near_distance'
p3104
aS'factory::@::landscape'
p3105
aS'road::@::avenue'
p3106
aS'author::@::teaching'
p3107
aS'convent::@::desert'
p3108
aS'tabernacle::@::direction'
p3109
aS'egg::@::line'
p3110
aS'chunk_of_yellow::@::front'
p3111
aS'hill::@::direction'
p3112
aS'de_humboldt::@::chart'
p3113
aS'tree::@::place_in_others'
p3114
aS'island::@::stream'
p3115
aS'villa::@::wood'
p3116
aS'child::@::window'
p3117
aS'salmon::@::ocean'
p3118
aS'summer::@::year'
p3119
aS'clipper::@::horn'
p3120
aS'ant::@::antenna'
p3121
aS'marjolin::@::hand'
p3122
aS'mother::@::hand'
p3123
aS'apple::@::leaf'
p3124
aS'bomber::@::bus'
p3125
aS'bruxelles::@::side'
p3126
aS'launch::@::bank'
p3127
aS'bomber::@::engine'
p3128
aS'sweater::@::ear'
p3129
aS'serge::@::francesca'
p3130
aS'bottle::@::bag'
p3131
aS'leg::@::air'
p3132
aS'head::@::dress'
p3133
aS'men::@::head'
p3134
aS'closet::@::precipitate'
p3135
aS'mug::@::beer'
p3136
aS'spite::@::sun'
p3137
aS'cannon::@::gun'
p3138
aS'thunder::@::ocean'
p3139
aS'age::@::tomb'
p3140
aS'protracted_thunder::@::ocean'
p3141
aS'thunder::@::torrent'
p3142
aS'dog::@::farnsworth'
p3143
aS'car::@::bumper'
p3144
aS'salmon::@::fly'
p3145
aS'rat::@::supervision'
p3146
aS'vehicle::@::bumper'
p3147
aS'loan::@::form'
p3148
aS'relation::@::government'
p3149
aS'pike::@::float'
p3150
aS'latter::@::worm'
p3151
aS'carrot::@::potato'
p3152
aS'green_bean::@::cup'
p3153
aS'bell::@::cup'
p3154
aS'vegetable::@::cup'
p3155
aS'red_pepper::@::cup'
p3156
aS'clove_garlic::@::onion'
p3157
aS'pepper::@::pepper'
p3158
aS'cup::@::cup'
p3159
aS'chicken_breast::@::cup'
p3160
aS'onion::@::stalk'
p3161
aS'cup::@::tomato'
p3162
aS'mango::@::cup'
p3163
aS'castle::@::queen'
p3164
aS'cathedral::@::archbishop'
p3165
aS'offspring::@::god'
p3166
aS'world::@::god'
p3167
aS'christ::@::o'
p3168
aS'cathedral::@::bishop'
p3169
aS'land::@::enterprise'
p3170
aS'master::@::virtue'
p3171
aS'cathedral::@::edifice'
p3172
aS'view::@::others'
p3173
aS'structure::@::force'
p3174
aS'view::@::behavioral_scientist'
p3175
aS'peter::@::brother'
p3176
aS'consultation::@::friend'
p3177
aS'act::@::meaning'
p3178
aS'debate::@::leader'
p3179
aS'opinion::@::clergy'
p3180
aS'council::@::promoter'
p3181
aS'celery::@::tablespoon'
p3182
aS'garlic::@::tablespoon'
p3183
aS'sugar::@::cup'
p3184
aS'squash::@::cup'
p3185
aS'bean::@::cup'
p3186
aS'tbsp::@::tomato'
p3187
aS'chair::@::boy'
p3188
aS'chair::@::woman'
p3189
aS'chair::@::jack'
p3190
aS'seat::@::man'
p3191
aS'table::@::man'
p3192
aS'chair::@::young_man'
p3193
aS'seat::@::men'
p3194
aS'seat::@::driver'
p3195
aS'chair::@::tom'
p3196
aS'roof::@::men'
p3197
aS'seat::@::body'
p3198
aS'lap::@::cat'
p3199
aS'top::@::man'
p3200
aS'seat::@::tom'
p3201
aS'chair::@::matt'
p3202
aS'chair::@::father'
p3203
aS'chair::@::peter'
p3204
aS'chair::@::ben'
p3205
aS'chair::@::foot'
p3206
aS'hand::@::digit'
p3207
aS'cell::@::nucleus'
p3208
aS'cell::@::hyperchromatic_nucleus'
p3209
aS'coat::@::clothes'
p3210
aS'bed::@::man'
p3211
aS'm::@::intent'
p3212
aS'gift::@::charm'
p3213
aS'contemplation::@::tempter'
p3214
aS'bed::@::wife'
p3215
aS'cell::@::bizarre_nucleus'
p3216
aS'taste::@::order'
p3217
aS'chair::@::leg'
p3218
aS'hat::@::head'
p3219
aS'head::@::neck'
p3220
aS'head::@::shoulder'
p3221
aS'table::@::leg'
p3222
aS'neck::@::head'
p3223
aS'body::@::leg'
p3224
aS'system::@::edge'
p3225
aS'bench::@::foot'
p3226
aS'boat::@::water'
p3227
aS'top::@::robert'
p3228
aS'business::@::brink'
p3229
aS'stool::@::leg'
p3230
aS'regime::@::brink_of_collapse'
p3231
aS'egg::@::end'
p3232
aS'arm::@::basket'
p3233
aS'wave::@::coast'
p3234
aS'bride::@::gown'
p3235
aS'passenger::@::wall'
p3236
aS'cloak::@::dress'
p3237
aS'shadow::@::wave'
p3238
aS'tall_shadow::@::wave'
p3239
aS'cloak::@::fur'
p3240
aS'sleeve::@::fur'
p3241
aS'sleeve::@::lace'
p3242
aS'boat::@::engineer'
p3243
aS'neckline::@::lace'
p3244
aS'silk::@::fur'
p3245
aS'trouser::@::gold_lace'
p3246
aS'end::@::lace'
p3247
aS'waistcoat::@::lace'
p3248
aS'coat::@::lace'
p3249
aS'hat::@::feather'
p3250
aS'skirt::@::band'
p3251
aS'cuff::@::lace'
p3252
aS'action::@::end_of_glow'
p3253
aS'semicircular::@::water'
p3254
aS'action::@::end'
p3255
aS'coat::@::hood'
p3256
aS'armour::@::avitus'
p3257
aS'coat::@::robin_hood'
p3258
aS'armour::@::ally'
p3259
aS'wall::@::distemper'
p3260
aS'gelatin::@::pigment'
p3261
aS'coat::@::trouser'
p3262
aS'keel::@::night'
p3263
aS'couch::@::bed'
p3264
aS'paper::@::shape'
p3265
aS'shape::@::paper'
p3266
aS'couch::@::cushion'
p3267
aS'stable::@::earth'
p3268
aS'coyote::@::dog'
p3269
aS'clergy::@::nothing'
p3270
aS'aspect::@::change'
p3271
aS'aspect_of_wilderness::@::change'
p3272
aS'plantation::@::countryside'
p3273
aS'coon::@::dog'
p3274
aS'animal::@::native'
p3275
aS'bear::@::sooner'
p3276
aS'woman::@::marriage'
p3277
aS'deer::@::dog'
p3278
aS'surgery::@::patient'
p3279
aS'surgery::@::exercise'
p3280
aS'indian::@::dog'
p3281
aS'camp::@::sunset'
p3282
aS'way::@::bear'
p3283
aS'war::@::realization'
p3284
aS'meal::@::person'
p3285
aS'prey::@::snake'
p3286
aS'visit::@::people'
p3287
aS'people::@::board'
p3288
aS'root::@::manchu'
p3289
aS'danger::@::queen'
p3290
aS'water::@::horse'
p3291
aS'approach::@::politician'
p3292
aS'party::@::native'
p3293
aS'cholesterol::@::bile'
p3294
aS'impression::@::thing'
p3295
aS'recess::@::war'
p3296
aS'grease::@::water'
p3297
aS'deer::@::lion'
p3298
aS'day::@::day'
p3299
aS'shoulder::@::mantle'
p3300
aS'dress::@::cloak'
p3301
aS'head::@::cloak'
p3302
aS'wave::@::tall_shadow'
p3303
aS'mass_of_hair::@::neck'
p3304
aS'reflection::@::way'
p3305
aS'cork::@::way'
p3306
aS'bodice::@::front'
p3307
aS'head::@::position'
p3308
aS'trace::@::morning'
p3309
aS'suit::@::skin'
p3310
aS'clothes::@::skin'
p3311
aS'dress::@::glove'
p3312
aS'fighter::@::pilot'
p3313
aS'door::@::magic'
p3314
aS'sweating::@::foot'
p3315
aS'robe::@::foot'
p3316
aS'plane::@::pilot'
p3317
aS'force::@::men'
p3318
aS'chariot::@::men'
p3319
aS'ship::@::slave'
p3320
aS'plane::@::crew'
p3321
aS'english::@::way'
p3322
aS'spirit::@::malignity'
p3323
aS'airplane::@::pilot'
p3324
aS'christonia::@::child'
p3325
aS'person::@::police'
p3326
aS'julian::@::louis'
p3327
aS'harris::@::snacker'
p3328
aS'frigate::@::battery'
p3329
aS'troop::@::gun'
p3330
aS'cavalry::@::picket'
p3331
aS'river::@::babble'
p3332
aS'plane::@::diminution'
p3333
aS'day::@::twinge'
p3334
aS'member::@::stream'
p3335
aS'cavalry::@::mile'
p3336
aS'garlic::@::onion'
p3337
aS'tablespoon::@::onion'
p3338
aS'onion::@::oil'
p3339
aS'onion::@::clove'
p3340
aS'red_onion::@::cup'
p3341
aS'clove::@::onion'
p3342
aS'clove::@::large_onion'
p3343
aS'garlic::@::medium_onion'
p3344
aS'onion::@::vi_cup'
p3345
aS'glove::@::finger'
p3346
aS'flash::@::line'
p3347
aS'gap_of_ruin::@::ocean'
p3348
aS'gap::@::ocean'
p3349
aS'own_breast::@::line'
p3350
aS'goose::@::feather'
p3351
aS'faucet::@::will'
p3352
aS'hat::@::brim'
p3353
aS'wheel::@::reasoning'
p3354
aS'sword::@::phrase'
p3355
aS'sun::@::wheel'
p3356
aS'others::@::ruler'
p3357
aS'calling::@::whig_alliance'
p3358
aS'criminal::@::nephew'
p3359
aS'horse::@::bridle'
p3360
aS'couplet::@::freedom'
p3361
aS'alice::@::smile'
p3362
aS'little_horse::@::bridle'
p3363
aS'talk::@::effort'
p3364
aS'horse_of_came::@::bridle_of_silver'
p3365
aS'turki::@::carbine'
p3366
aS'turki::@::cocked_carbine'
p3367
aS'officer_friend::@::troop_at_heel'
p3368
aS'tom::@::child_in_arm'
p3369
aS'little_turki::@::cocked_carbine'
p3370
aS'baby::@::byrne'
p3371
aS'little_turki::@::carbine_across_thigh'
p3372
aS'little_nag::@::men_of_size'
p3373
aS'nag::@::men'
p3374
aS'baby::@::little_byrne'
p3375
aS'austrian::@::rifle'
p3376
aS'friend::@::troop_at_heel'
p3377
aS'horse::@::bridle_of_silver'
p3378
aS'horse::@::circle'
p3379
aS'horse::@::field'
p3380
aS'courtier::@::procession'
p3381
aS'horse::@::bottom'
p3382
aS'mother::@::house'
p3383
aS'horse::@::front'
p3384
aS'child::@::two'
p3385
aS'horse::@::meadow'
p3386
aS'horse::@::terror'
p3387
aS'horse::@::direction'
p3388
aS'warrior::@::front'
p3389
aS'woman::@::room'
p3390
aS'horse::@::line'
p3391
aS'player::@::circle'
p3392
aS'child::@::house'
p3393
aS'rupert::@::pursuit'
p3394
aS'saturn::@::hour'
p3395
aS'minnow::@::way'
p3396
aS'cattle::@::field'
p3397
aS'horse::@::stomach'
p3398
aS'barry::@::paris'
p3399
aS'berkeley::@::virginia'
p3400
aS'talbot::@::richelieu'
p3401
aS'hell::@::election'
p3402
aS'doctor::@::room'
p3403
aS'men::@::contempt'
p3404
aS'men::@::london'
p3405
aS'office::@::ticket'
p3406
aS'hotel::@::suite'
p3407
aS'library::@::catalog'
p3408
aS'term::@::credit'
p3409
aS'lion::@::bear'
p3410
aS'first_generation::@::state'
p3411
aS'blow::@::quo'
p3412
aS'generation::@::state'
p3413
aS'flood::@::person'
p3414
aS'storm::@::rifle'
p3415
aS'messenger::@::gun'
p3416
aS'way::@::bill'
p3417
aS'iron_messenger::@::gun'
p3418
aS'grape::@::gun'
p3419
aS'teaspoon::@::tablespoon'
p3420
aS'pinch::@::garlic_clove'
p3421
aS'clove::@::teaspoon'
p3422
aS'olive_oil::@::clove'
p3423
aS'salt::@::clove'
p3424
aS'pepper::@::parsley'
p3425
aS'ginger::@::teaspoon'
p3426
aS'cup::@::garlic'
p3427
aS'carrot::@::clove'
p3428
aS'tsp::@::garlic'
p3429
aS'lash::@::splendour'
p3430
aS'potato::@::onion'
p3431
aS'carrot::@::onion'
p3432
aS'potato::@::tuber'
p3433
aS'death::@::man'
p3434
aS'steam::@::water'
p3435
aS'story::@::lesson'
p3436
aS'part::@::publisher'
p3437
aS'table::@::drawing'
p3438
aS'mouse::@::tail'
p3439
aS'rabbit::@::eye'
p3440
aS'large_number::@::appendage'
p3441
aS'number_of_individual::@::appendage'
p3442
aS'diet::@::difficulty'
p3443
aS'portugal::@::base'
p3444
aS'man::@::water'
p3445
aS'robe::@::back'
p3446
aS'truth::@::case'
p3447
aS'carthoris::@::time'
p3448
aS'length::@::archbishop'
p3449
aS'sheep::@::deer'
p3450
aS'sheep::@::horse'
p3451
aS'wood::@::quality'
p3452
aS'wood::@::furniture'
p3453
aS'animal::@::milk'
p3454
aS'revenue::@::benefit'
p3455
aS'diamond::@::beauty'
p3456
aS'man::@::quality'
p3457
aS'variety::@::purpose'
p3458
aS'infant::@::rule'
p3459
aS'men::@::courage'
p3460
aS'clothes::@::body'
p3461
aS'hair::@::skull'
p3462
aS'hair::@::forehead'
p3463
aS'shirt::@::body'
p3464
aS'clothes::@::back'
p3465
aS'hair::@::scalp'
p3466
aS'door::@::hinge'
p3467
aS'wind::@::body'
p3468
aS'wallpaper::@::wall'
p3469
aS'sail::@::yard'
p3470
aS'picture::@::wall'
p3471
aS'sob::@::throat'
p3472
aS'shirt::@::sleeve'
p3473
aS'profit::@::cyclone'
p3474
aS'bottom::@::torpedo'
p3475
aS'page::@::policeman'
p3476
aS'tip::@::mountain'
p3477
aS'pole::@::everybody'
p3478
aS'leaf::@::wind'
p3479
aS'bank::@::boy'
p3480
aS'ralph::@::minute'
p3481
aS'ring::@::moment'
p3482
aS'sieve::@::sea'
p3483
aS'blood::@::poison'
p3484
aS'snake::@::animal'
p3485
aS'sofa::@::bed'
p3486
aS'woman::@::poe'
p3487
aS'time::@::hut'
p3488
aS'man::@::wife'
p3489
aS'capital::@::line'
p3490
aS'fear::@::critic'
p3491
aS'resident::@::ruler'
p3492
aS'passage::@::room'
p3493
aS'mile::@::luck'
p3494
aS'darkness::@::scene'
p3495
aS'squirrel::@::head'
p3496
aS'composure::@::feature'
p3497
aS'soul::@::headlong'
p3498
aS'deer::@::sorcerer'
p3499
aS'dissolution::@::gazette'
p3500
aS'teacher::@::time'
p3501
aS'work::@::review'
p3502
aS'truck::@::rear'
p3503
aS'carriage::@::chalons'
p3504
aS'waggon::@::chamber'
p3505
aS'vortex::@::debris'
p3506
aS'matter::@::consideration'
p3507
aS'woman::@::kitchen'
p3508
aS'whale::@::mouth'
p3509
aS'heron::@::neck'
p3510
aS'soldier::@::sword'
p3511
aS'vessel::@::whey'
p3512
aS'hart::@::letter'
p3513
aS'dance::@::nigger'
p3514
aS'salmon::@::pike'
p3515
aS'paris::@::blood'
p3516
aS'oyster::@::butter'
p3517
aS'shark::@::fin'
p3518
aS'people::@::mouth'
p3519
aS'fish::@::effort'
p3520
aS'men::@::end'
p3521
aS'cavalry::@::armor'
p3522
aS'rush::@::back'
p3523
aS'willow::@::tree'
p3524
aS'few_willow::@::tree'
p3525
aS'oath::@::oath'
p3526
aS'passer::@::everybody'
p3527
aS'acacia::@::tree'
p3528
aS'bag::@::box'
p3529
aS'capsule::@::basket'
p3530
aS'weight::@::circle'
p3531
aS'localization::@::relation'
p3532
aS'body::@::box'
p3533
aS'comparison::@::detection'
p3534
aS'cream::@::manner'
p3535
aS'tube::@::tube'
p3536
aS'apparatus::@::box'
p3537
aS'tube::@::coil'
p3538
aS'beetle::@::insect'
p3539
aS'solution::@::conclusion'
p3540
aS'result::@::anthropologist'
p3541
aS'commissioner::@::castillero'
p3542
aS'bomb::@::bow'
p3543
aS'association::@::processing_of_complaint'
p3544
aS'moslem::@::war'
p3545
aS'north::@::battle'
p3546
aS'school::@::boy'
p3547
aS'bomber::@::missile'
p3548
aS'association::@::adequate_processing'
p3549
aS'yard::@::vessel'
p3550
aS'bottle::@::cap'
p3551
aS'payment::@::card'
p3552
aS'pile::@::frail'
p3553
aS'pile::@::cap'
p3554
aS'bottle::@::glass'
p3555
aS'bottle::@::vessel'
p3556
aS'needle::@::glass_tube'
p3557
aS'mass::@::stratum'
p3558
aS'needle::@::tube'
p3559
aS'needle::@::tube_for_insulation'
p3560
aS'cannon::@::square'
p3561
aS'mechanism::@::attention'
p3562
aS'part::@::partition'
p3563
aS'house::@::plan'
p3564
aS'cathedral::@::window'
p3565
aS'cedar::@::pine'
p3566
aS'cedar::@::tree'
p3567
aS'seed::@::frenchman'
p3568
aS'repose::@::plain'
p3569
aS'mule::@::fountain'
p3570
aS'place::@::schwitter'
p3571
aS'bank::@::iris'
p3572
aS'print::@::movement'
p3573
aS'moss::@::flower'
p3574
aS'mob::@::square'
p3575
aS'apostrophe::@::parent'
p3576
aS'fierce_invective::@::ring'
p3577
aS'lead::@::voice'
p3578
aS'laughter::@::fury'
p3579
aS'coat::@::tail'
p3580
aS'tree::@::bottom'
p3581
aS'wall::@::bottom'
p3582
aS'crow::@::bird'
p3583
aS'attack::@::monkey'
p3584
aS'shame::@::god'
p3585
aS'southerner::@::verena'
p3586
aS'father::@::element'
p3587
aS'girl::@::baroness'
p3588
aS'field::@::mile'
p3589
aS'deer::@::foot'
p3590
aS'skin::@::hoe'
p3591
aS'coyote::@::paw'
p3592
aS'deer::@::sheep'
p3593
aS'desk::@::leg'
p3594
aS'wall::@::guide'
p3595
aS'back::@::head'
p3596
aS'wall::@::anderton'
p3597
aS'table::@::foot'
p3598
aS'pillow::@::head'
p3599
aS'hand::@::chin'
p3600
aS'wall::@::foot'
p3601
aS'dove::@::wing'
p3602
aS'commodore::@::board'
p3603
aS'mindful::@::pretext'
p3604
aS'day::@::pretext'
p3605
aS'dress::@::ribbon'
p3606
aS'hand::@::letter'
p3607
aS'finger::@::form'
p3608
aS'suit::@::ribbon'
p3609
aS'house::@::flag'
p3610
aS'hand::@::copy'
p3611
aS'dress::@::silk'
p3612
aS'father::@::blow'
p3613
aS'elephant::@::lion'
p3614
aS'earthwork::@::rattle'
p3615
aS'elephant::@::tail'
p3616
aS'claude::@::spirit'
p3617
aS'abelard::@::beauty'
p3618
aS'men::@::zeal'
p3619
aS'other_girl::@::slightness_of_body'
p3620
aS'winthrop::@::choice'
p3621
aS'flipped_through_paper::@::invisible_trail'
p3622
aS'many_person::@::dispensation'
p3623
aS'people::@::folly'
p3624
aS'espinosa::@::multitude_of_people'
p3625
aS'david::@::idea'
p3626
aS'woman::@::water'
p3627
aS'smith::@::mainspring_on_visit'
p3628
aS'famous_traveler::@::circulation_in_empire'
p3629
aS'amateur_astronomer::@::performance_of_barlow'
p3630
aS'employment::@::ingenuity'
p3631
aS'adam_smith::@::mainspring'
p3632
aS'maxwell::@::inexhaustible_way'
p3633
aS'waiter::@::amount_of_coffee'
p3634
aS'presley::@::state_of_affair'
p3635
aS'elephant::@::trunk'
p3636
aS'saunier::@::interval'
p3637
aS'master::@::hand'
p3638
aS'daku::@::carbine'
p3639
aS'shakespeare::@::window'
p3640
aS'remark::@::dogma'
p3641
aS'gunwale::@::bank'
p3642
aS'slow::@::grease'
p3643
aS'men::@::flail'
p3644
aS'breath::@::break'
p3645
aS'bob::@::end'
p3646
aS'knee::@::fear'
p3647
aS'doctor_saunier::@::interval'
p3648
aS'tree::@::branch'
p3649
aS'quetzalcoatl::@::club'
p3650
aS'drive::@::tree'
p3651
aS'fox::@::lion'
p3652
aS'bad_mistake::@::future_generation'
p3653
aS'caesar::@::ascendant_monarch'
p3654
aS'kind_of_style::@::building'
p3655
aS'latter::@::sentimentalism_spring'
p3656
aS'iconoclastic_reform::@::revolution'
p3657
aS'hecla::@::art'
p3658
aS'woman::@::rank'
p3659
aS'way::@::roosevelt'
p3660
aS'college::@::school'
p3661
aS'silver_strand::@::band'
p3662
aS'mode::@::sculpture'
p3663
aS'own_slaughter::@::child'
p3664
aS'paralytic_chest::@::due_deformity'
p3665
aS'christian_minister::@::rabbi'
p3666
aS'xiv_of_france::@::john_v'
p3667
aS'reed::@::breath'
p3668
aS'reform::@::revolution_of_century'
p3669
aS'johnsonian_style::@::boswell'
p3670
aS'dauphin::@::de_choiseul'
p3671
aS'frigate::@::gun'
p3672
aS'aborigine::@::stick'
p3673
aS'airman::@::bird'
p3674
aS'space::@::spear'
p3675
aS'wheat::@::shilling'
p3676
aS'stroke::@::month'
p3677
aS'ground::@::innumerable_stake'
p3678
aS'ground::@::sharp_stake'
p3679
aS'device::@::nothing'
p3680
aS'nurse::@::ward'
p3681
aS'leader::@::in'
p3682
aS'generator::@::factor'
p3683
aS'family::@::sum'
p3684
aS'glove::@::clothing'
p3685
aS'glove::@::mitten'
p3686
aS'goose::@::head'
p3687
aS'friend::@::contradiction'
p3688
aS'affection::@::midhurst'
p3689
aS'brush::@::wind'
p3690
aS'moxlow::@::good_people'
p3691
aS'flock::@::little_pete'
p3692
aS'bird_at_night::@::tick'
p3693
aS'father::@::girl'
p3694
aS'elf::@::doctor'
p3695
aS'father::@::jean'
p3696
aS'stanton::@::trip'
p3697
aS'man::@::woman'
p3698
aS'food::@::witch'
p3699
aS'herring::@::cod'
p3700
aS'rome::@::spiritualism'
p3701
aS'palestine::@::babylon'
p3702
aS'finger::@::leg'
p3703
aS'horse::@::creature'
p3704
aS'rash_of_sweat::@::lamp'
p3705
aS'peter::@::man'
p3706
aS'sailing::@::man'
p3707
aS'rope::@::agility'
p3708
aS'rash::@::lamp'
p3709
aS'rash_on_forehead::@::lamp'
p3710
aS'horse::@::ear'
p3711
aS'head::@::curve'
p3712
aS'stone::@::wind'
p3713
aS'poe_newsletter::@::interpretation'
p3714
aS'eye::@::fanny'
p3715
aS'devil_head::@::interpretation'
p3716
aS'dollar::@::smith'
p3717
aS'head::@::interpretation'
p3718
aS'amount::@::player'
p3719
aS'horse::@::eye'
p3720
aS'window::@::eye'
p3721
aS'body::@::eye'
p3722
aS'poet::@::addition'
p3723
aS'something::@::knowledge'
p3724
aS'echo::@::mouth'
p3725
aS'ball::@::eye'
p3726
aS'men::@::statute'
p3727
aS'attachment::@::praise'
p3728
aS'church::@::respect'
p3729
aS'member::@::leave'
p3730
aS'character::@::stroke'
p3731
aS'plate::@::eye'
p3732
aS'rate::@::reference'
p3733
aS'varney::@::hypocrisy'
p3734
aS'duty::@::man'
p3735
aS'end::@::eye'
p3736
aS'person::@::mouth'
p3737
aS'horse::@::mouth'
p3738
aS'patient::@::nose'
p3739
aS'man::@::nose'
p3740
aS'horse::@::rein'
p3741
aS'messenger::@::news'
p3742
aS'spot::@::tongue'
p3743
aS'son::@::upwards_of_lance'
p3744
aS'volley_of_lie::@::speed'
p3745
aS'men::@::tree'
p3746
aS'volley::@::speed'
p3747
aS'@::trundle_in^-1::man'
p3748
aS'government::@::principal'
p3749
aS'male::@::egg'
p3750
aS'leaf::@::year'
p3751
aS'utility::@::beauty'
p3752
aS'nature::@::inner'
p3753
aS'conrad::@::feeling'
p3754
aS'furnace::@::brazen_statue'
p3755
aS'rule::@::chapel'
p3756
aS'news::@::amendment'
p3757
aS'regulation::@::building'
p3758
aS'furnace::@::statue'
p3759
aS'regulation::@::building_of_building'
p3760
aS'shell::@::area'
p3761
aS'jet::@::plane'
p3762
aS'hero::@::action'
p3763
aS'state::@::life'
p3764
aS'beam::@::target'
p3765
aS'knife::@::point'
p3766
aS'eye::@::point'
p3767
aS'face::@::edge'
p3768
aS'gnawn::@::coffer'
p3769
aS'library::@::student'
p3770
aS'cabin::@::phelps'
p3771
aS'lion::@::horse'
p3772
aS'titter::@::villager'
p3773
aS'cry::@::populace'
p3774
aS'dandy::@::black'
p3775
aS'ptarmigan::@::bush'
p3776
aS'pigeon::@::bird'
p3777
aS'nothing::@::bird'
p3778
aS'camilla::@::moment'
p3779
aS'door::@::queen'
p3780
aS'man::@::line'
p3781
aS'credit::@::level'
p3782
aS'man::@::foul_line'
p3783
aS'rabbit::@::street'
p3784
aS'jasper::@::street'
p3785
aS'restaurant::@::shop'
p3786
aS'marcus::detach^-1::@'
p3787
aS'rifle::@::arm'
p3788
aS'form::@::arm'
p3789
aS'girl::@::arm'
p3790
aS'rifle::@::wood'
p3791
aS'day::@::new_quarter'
p3792
aS'diaphragm::@::direction'
p3793
aS'hand::@::sleeve'
p3794
aS'robe::@::belt'
p3795
aS'earth::@::oceanic_water'
p3796
aS'bottle::@::place'
p3797
aS'earth::@::water'
p3798
aS'robe::@::fold'
p3799
aS'log::@::water'
p3800
aS'word::@::silence'
p3801
aS'marksmanship_of_rider::@::air'
p3802
aS'wonderful_marksmanship::@::air'
p3803
aS'spring::@::vine'
p3804
aS'cowardice::@::pride'
p3805
aS'sea::@::lump'
p3806
aS'body::@::courtyard'
p3807
aS'treasure::@::sky'
p3808
aS'soul::@::eternity'
p3809
aS'tipping::@::water'
p3810
aS'topa::@::roof'
p3811
aS'indian::@::wood'
p3812
aS'sloop::@::island_shore'
p3813
aS'salmon::@::mouth'
p3814
aS'sheep::@::bull'
p3815
aS'author::@::time'
p3816
aS'cost::@::time'
p3817
aS'woman::@::hypocritical_society'
p3818
aS'constitutional_right::@::necessity'
p3819
aS'allan_bakke::@::race'
p3820
aS'student::@::race'
p3821
aS'author::@::spare_time'
p3822
aS'government::@::claim'
p3823
aS'sheep::@::fleece'
p3824
aS'fond_affection::@::virtue'
p3825
aS'structure::@::first_time'
p3826
aS'innumerable_variety::@::beauty'
p3827
aS'worldly_wisdom::@::defence'
p3828
aS'practice::@::market'
p3829
aS'child::@::government_career'
p3830
aS'japanese::@::food'
p3831
aS'offspring::@::year'
p3832
aS'domestic_animal::@::purpose'
p3833
aS'animal::@::maintenance'
p3834
aS'calf::@::stock_with_meal'
p3835
aS'variety::@::beauty'
p3836
aS'ancestor::@::purpose'
p3837
aS'excellent_specimen::@::form'
p3838
aS'shirt::@::collar'
p3839
aS'doll::@::day'
p3840
aS'men::@::moment'
p3841
aS'child::@::intensity'
p3842
aS'fashion::@::church_of_england'
p3843
aS'shirt::@::neck'
p3844
aS'breech::@::knee'
p3845
aS'shirt::@::throat'
p3846
aS'leg::@::knee'
p3847
aS'sleeve::@::wrist'
p3848
aS'dress::@::throat'
p3849
aS'garment::@::waist'
p3850
aS'skirt::@::waist'
p3851
aS'tunic::@::neck'
p3852
aS'cord::@::end'
p3853
aS'paper::@::top'
p3854
aS'string::@::top'
p3855
aS'end::@::side'
p3856
aS'shirt::@::vest'
p3857
aS'petticoat::@::skirt'
p3858
aS'snake::@::eye'
p3859
aS'fire::@::eye'
p3860
aS'star::@::eye'
p3861
aS'piece::@::eye'
p3862
aS'man::@::dirt'
p3863
aS'price::@::commodity'
p3864
aS'plane::@::seaward'
p3865
aS'glass::@::sandbar'
p3866
aS'purpose::@::purpose'
p3867
aS'patient::@::goal'
p3868
aS'spear::@::end'
p3869
aS'principle::@::badalia'
p3870
aS'side::@::rule'
p3871
aS'couch::@::elizabeth'
p3872
aS'land::@::colden'
p3873
aS'government::@::panza'
p3874
aS'knowledge::@::men'
p3875
aS'account::@::conversion'
p3876
aS'death::@::men'
p3877
aS'clothes::@::native'
p3878
aS'honor::@::doctor'
p3879
aS'stove::@::food'
p3880
aS'fireplace::@::food'
p3881
aS'stove::@::mother'
p3882
aS'fire::@::family'
p3883
aS'stove::@::wood'
p3884
aS'toil::@::matter'
p3885
aS'flame::@::root'
p3886
aS'sword::@::arm'
p3887
aS'head::@::wing'
p3888
aS'boy::@::arm'
p3889
aS'instrument::@::shakespeare'
p3890
aS'note::@::door'
p3891
aS'knee::@::river'
p3892
aS'sword::@::point'
p3893
aS'robber::@::shout'
p3894
aS'men::@::weapon'
p3895
aS'wall::@::arch'
p3896
aS'tanker::@::oil'
p3897
aS'country::@::cost'
p3898
aS'train::@::coal'
p3899
aS'agarose_gel::@::sample'
p3900
aS'company::@::cargo'
p3901
aS'column::@::ml'
p3902
aS'ship::@::ton'
p3903
aS'factor::@::variable'
p3904
aS'year::@::quantity'
p3905
aS'truck::@::door'
p3906
aS'car::@::gate'
p3907
aS'car::@::office'
p3908
aS'car::@::curb'
p3909
aS'truck::@::gate'
p3910
aS'car::@::rear'
p3911
aS'car::@::end'
p3912
aS'car::@::garage'
p3913
aS'car::@::time'
p3914
aS'car::@::light'
p3915
aS'car::@::roadside'
p3916
aS'truck::@::curb'
p3917
aS'wagon::@::door'
p3918
aS'plane::@::gate'
p3919
aS'truck::@::entrance'
p3920
aS'car::@::side_of_house'
p3921
aS'car::@::side_of_road'
p3922
aS'truck::@::light'
p3923
aS'line::@::rhyme'
p3924
aS'individual::@::making'
p3925
aS'boy::@::word'
p3926
aS'x::@::clothes'
p3927
aS'idiopathic_irregularity::@::boy'
p3928
aS'vulture::@::bird'
p3929
aS'cato::@::mortal'
p3930
aS'heart_irregularity::@::boy'
p3931
aS'eumenides::@::whip'
p3932
aS'whale::@::tail'
p3933
aS'thought::@::restoration'
p3934
aS'yacht::@::boat'
p3935
aS'wharf::@::boat'
p3936
aS'god::@::dust'
p3937
aS'pier::@::steamer'
p3938
aS'ship::@::number'
p3939
aS'ship::@::boat'
p3940
aS'man::@::pastime'
p3941
aS'brig::@::boat'
p3942
aS'platform::@::train'
p3943
aS'vessel::@::boat'
p3944
aS'quay::@::ship'
p3945
aS'apple::@::skin'
p3946
aS'joseph::@::jesus'
p3947
aS'bookcase::@::book'
p3948
aS'square::@::people'
p3949
aS'history::@::example'
p3950
aS'road::@::truck'
p3951
aS'book::@::idea'
p3952
aS'lot::@::car'
p3953
aS'head::@::idea'
p3954
aS'brow::@::hat'
p3955
aS'hall::@::spectator'
p3956
aS'ashtray::@::butt'
p3957
aS'street::@::soldier'
p3958
aS'parking_lot::@::car'
p3959
aS'bottle::@::liquid'
p3960
aS'day::@::tube'
p3961
aS'favour::@::pigment'
p3962
aS'exchange::@::reparation'
p3963
aS'hope::@::miser'
p3964
aS'system::@::corporation'
p3965
aS'announcement::@::information'
p3966
aS'penny::@::quality'
p3967
aS'lawyer::@::air'
p3968
aS'favor::@::class'
p3969
aS'lung::@::quantity'
p3970
aS'opera::@::regularity'
p3971
aS'bottle::@::wine'
p3972
aS'bottle::@::water'
p3973
aS'time::@::art'
p3974
aS'flask::@::milk'
p3975
aS'vessel::@::commodity'
p3976
aS'tube::@::solution'
p3977
aS'mind::@::plan'
p3978
aS'mind::@::idea'
p3979
aS'cell::@::solution'
p3980
aS'year::@::cent'
p3981
aS'month::@::crop'
p3982
aS'mind::@::new_idea'
p3983
aS'part::@::water'
p3984
aS'succession::@::follicle'
p3985
aS'hundred::@::butler'
p3986
aS'system::@::water'
p3987
aS'language::@::inequality'
p3988
aS'box::@::chest'
p3989
aS'butterfly::@::wing'
p3990
aS'house::@::left'
p3991
aS'shadow::@::wall'
p3992
aS'sun::@::page'
p3993
aS'castle::@::house'
p3994
aS'lie::@::boudins'
p3995
aS'building::@::house'
p3996
aS'little_castle::@::house'
p3997
aS'piece::@::cork_in_water'
p3998
aS'bridge::@::vessel'
p3999
aS'bureaucratic_absolutism::@::house'
p4000
aS'socialist_spirit::@::edifice'
p4001
aS'prison::@::house_of_card'
p4002
aS'cloud::@::fight'
p4003
aS'large_myriad::@::crowd'
p4004
aS'mean::@::type'
p4005
aS'kitten::@::flower'
p4006
aS'word::@::water'
p4007
aS'fortress::@::place'
p4008
aS'bureaucratic_absolutism::@::house_of_card'
p4009
aS'empire::@::house'
p4010
aS'wolf::@::worshipper'
p4011
aS'menu::@::shoebox'
p4012
aS'office::@::wall_in_fire'
p4013
aS'castle::@::knight'
p4014
aS'ravisher::@::friend'
p4015
aS'cathedral::@::person'
p4016
aS'cemetery::@::body'
p4017
aS'chair::@::half'
p4018
aS'time::@::deposit'
p4019
aS'snow::@::light'
p4020
aS'acroceraunian_snow::@::light'
p4021
aS'height::@::defeat'
p4022
aS'horse::@::king'
p4023
aS'battlement::@::stone'
p4024
aS'fin::@::fin'
p4025
aS'nature::@::animal'
p4026
aS'activity::@::characteristic'
p4027
aS'account::@::ending'
p4028
aS'apprehension::@::mind'
p4029
aS'coat::@::nothing'
p4030
aS'activity_of_hydroxylase::@::characteristic'
p4031
aS'instruction::@::school'
p4032
aS'apprehension::@::public_mind'
p4033
aS'raphael::@::piacenza'
p4034
aS'dress::@::coat'
p4035
aS'area::@::ethnopsychology'
p4036
aS'infant::@::mandatory_rule'
p4037
aS'dress::@::garment'
p4038
aS'life::@::star'
p4039
aS'citadel::@::shot'
p4040
aS'colour::@::light'
p4041
aS'isolated_citadel::@::shot'
p4042
aS'life_of_zinzendorf::@::star'
p4043
aS'dress::@::sleeve'
p4044
aS'organization::@::structure'
p4045
aS'window::@::child'
p4046
aS'eagle::@::feather'
p4047
aS'time::follow_in^-1::@'
p4048
aS'@::undergo^-1::bird'
p4049
aS'@::undergo^-1::female'
p4050
aS'winter_plumage::acquire_by::@'
p4051
aS'female::undergo::@'
p4052
aS'bird::have::@'
p4053
aS'nymph::@::time'
p4054
aS'car::complain_in::@'
p4055
aS'@::reach_after^-1::stage'
p4056
aS'@::have^-1::adult'
p4057
aS'specimen::be_in::@'
p4058
aS'@::acquire_by^-1::adult_plumage'
p4059
aS'@::take_on::ground'
p4060
aS'ground::take_on^-1::@'
p4061
aS'larva::@::several_time'
p4062
aS'life::@::sense'
p4063
aS'life_of_body::@::sense'
p4064
aS'divine::@::poet'
p4065
aS'winch::@::child'
p4066
aS'discomfiture::@::rival'
p4067
aS'distinction::@::sens'
p4068
aS'movement::@::camera'
p4069
aS'feature::@::reader'
p4070
aS'man::@::will'
p4071
aS'divine_in_nature::@::poet'
p4072
aS'elm::@::branch'
p4073
aS'name::@::scorn'
p4074
aS'pike::@::manner'
p4075
aS'plan::@::mind'
p4076
aS'rousseau::@::violence'
p4077
aS'everything::@::hold'
p4078
aS'lush::@::despair'
p4079
aS'whole::@::confusion'
p4080
aS'cargo::@::confusion'
p4081
aS'fragment::@::direction'
p4082
aS'flag::@::kind'
p4083
aS'book::@::confusion'
p4084
aS'shrew::@::face'
p4085
aS'violet::@::air'
p4086
aS'men::@::derision'
p4087
aS'name::@::flow'
p4088
aS'falcon::@::owl'
p4089
aS'bird::@::arab'
p4090
aS'girl::@::mother'
p4091
aS'week::@::cousin'
p4092
aS'fox::@::mouth'
p4093
aS'glove::@::dress'
p4094
aS'goat::@::cow'
p4095
aS'grape::@::fruit'
p4096
aS'miss_rachel::@::story'
p4097
aS'greece::@::nation'
p4098
aS'attire::@::costume'
p4099
aS'cephalopod::@::mollusc'
p4100
aS'1st::@::tract'
p4101
aS'formiate::@::salt'
p4102
aS'bright_attire::@::whole_costume'
p4103
aS'low_form::@::planet'
p4104
aS'care::@::paul'
p4105
aS'cooper::@::author'
p4106
aS'intellectual_elite::@::sumner'
p4107
aS'son::@::torre'
p4108
aS'bill_of_lading::@::statute_in_question'
p4109
aS'theology::@::pope'
p4110
aS'rome::@::scene'
p4111
aS'addition_of_littleness::@::few_thing'
p4112
aS'doctrine::@::love'
p4113
aS'trinitarian::@::act'
p4114
aS'old_man::@::nobody'
p4115
aS'hatchet::@::head'
p4116
aS'stick::@::stranger'
p4117
aS'indian::@::line'
p4118
aS'window::@::shakespeare'
p4119
aS'club::@::quetzalcoatl'
p4120
aS'interval::@::doctor_saunier'
p4121
aS'knock::@::awfulness_of_way'
p4122
aS'knock::@::full_awfulness'
p4123
aS'hand::@::one'
p4124
aS'end::@::bob'
p4125
aS'man::@::dossier'
p4126
aS'boat::@::slip'
p4127
aS'fever::@::affectation'
p4128
aS'knock::@::awfulness'
p4129
aS'stone::@::doubt'
p4130
aS'interval::@::saunier'
p4131
aS'break::@::breath'
p4132
aS'carbine::@::daku'
p4133
aS'flail::@::men'
p4134
aS'helicopter::@::pilot'
p4135
aS'ship::@::pilot'
p4136
aS'ship::@::hastings'
p4137
aS'cloth::@::folk'
p4138
aS'horse::@::cat'
p4139
aS'headlong::@::soul'
p4140
aS'sorcerer::@::deer'
p4141
aS'nigger::@::dance'
p4142
aS'effort::@::salmon'
p4143
aS'dwarf::@::flame'
p4144
aS'light::@::moon'
p4145
aS'viii::@::number'
p4146
aS'side::@::calf'
p4147
aS'jacket::@::tail'
p4148
aS'education::@::whole'
p4149
aS'question::@::ground_as_foregoing'
p4150
aS'father::@::temple'
p4151
aS'men::@::earth'
p4152
aS'light::@::plane'
p4153
aS'state::@::death'
p4154
aS'library::@::company'
p4155
aS'bird::@::nothing'
p4156
aS'lion::@::deer'
p4157
aS'pigeon::@::crop'
p4158
aS'lion::@::elephant'
p4159
aS'blow::@::father'
p4160
aS'rattle::@::earthwork'
p4161
aS'workman::@::house'
p4162
aS'missile::@::point'
p4163
aS'light::@::acroceraunian_snow'
p4164
aS'moth::@::body'
p4165
aS'thing::@::blood'
p4166
aS'balustrade::@::antiseptic_solution'
p4167
aS'balustrade::@::solution'
p4168
aS'onion::@::parsley'
p4169
aS'olive_oil::@::garlic'
p4170
aS'word::@::case'
p4171
aS'shallot::@::garlic'
p4172
aS'onion::@::cup'
p4173
aS'onion::@::peel'
p4174
aS'basil::@::tablespoon'
p4175
aS'tablespoon::@::green_onion'
p4176
aS'scallion::@::tablespoon'
p4177
aS'lengthwise::@::wing'
p4178
aS'olive::@::tablespoon'
p4179
aS'parsley::@::poet'
p4180
aS'rule::@::clipping'
p4181
aS'gun::@::grape'
p4182
aS'locomotive::@::curl'
p4183
aS'rifle::@::storm'
p4184
aS'gun::@::messenger_of_death'
p4185
aS'gun::@::iron_messenger'
p4186
aS'bill::@::way'
p4187
aS'rifle::@::muzzle'
p4188
aS'end::@::agency'
p4189
aS'wind::@::sea'
p4190
aS'sofa::@::chair'
p4191
aS'city::@::anna'
p4192
aS'bird::@::gale_on_shore'
p4193
aS'talboys::@::plowson'
p4194
aS'capitol::@::men'
p4195
aS'nell::@::brederode'
p4196
aS'boy::@::clerk'
p4197
aS'teena::@::brackley'
p4198
aS'everyone::@::watson'
p4199
aS'base::@::class'
p4200
aS'family::@::roosevelt'
p4201
aS'isthmus::@::troop'
p4202
aS'country_of_argolis::@::race'
p4203
aS'organization::@::asset'
p4204
aS'space::construct_in^-1::@'
p4205
aS'@::construct_in::space'
p4206
aS'consciousness::@::faith'
p4207
aS'vulture::@::eagle'
p4208
aS'qualm::@::locke'
p4209
aS'banana::@::fruit'
p4210
aS'bed::@::sofa'
p4211
aS'hut::@::time'
p4212
aS'line::@::capital'
p4213
aS'poe::@::woman'
p4214
aS'humphreys::@::leave'
p4215
aS'sun::@::wind'
p4216
aS'conformation::@::protein'
p4217
aS'ruler::@::resident'
p4218
aS'bed::@::spring'
p4219
aS'bilbo::@::handkerchief'
p4220
aS'transport::@::troop'
p4221
aS'tongue::@::interruption'
p4222
aS'boiler::@::danger'
p4223
aS'wire::@::need'
p4224
aS'line::@::stop'
p4225
aS'fiber::@::interruption'
p4226
aS'engine::@::hitch'
p4227
aS'watch::@::order'
p4228
aS'line::@::meeting'
p4229
aS'ground::@::break'
p4230
aS'bank::@::exception'
p4231
aS'time::@::observation'
p4232
aS'inch::@::lip'
p4233
aS'bowl::@::milk'
p4234
aS'year::@::principle'
p4235
aS'box::@::object'
p4236
aS'kittiwake::@::canvas'
p4237
aS'ring::@::shaft'
p4238
aS'box::@::name'
p4239
aS'castle::@::law'
p4240
aS'castle::@::wall'
p4241
aS'city::@::wall'
p4242
aS'town::@::wall'
p4243
aS'claim::@::exception'
p4244
aS'territory::@::system'
p4245
aS'neck::@::collar'
p4246
aS'enthusiasm::@::care'
p4247
aS'neck::@::ring'
p4248
aS'camp::@::ditch'
p4249
aS'food::@::acid'
p4250
aS'neck::@::string'
p4251
aS'neck::@::rope'
p4252
aS'rain::@::clothes'
p4253
aS'terga::@::margin'
p4254
aS'kind::@::ash'
p4255
aS'father::@::rule'
p4256
aS'annie::@::gregory'
p4257
aS'city::@::care'
p4258
aS'temple::@::wall'
p4259
aS'french::@::champlain'
p4260
aS'cathedral::@::wall'
p4261
aS'lot::@::month'
p4262
aS'city::@::year'
p4263
aS'playhouse::@::year'
p4264
aS'chair::@::cushion'
p4265
aS'desk::@::paper'
p4266
aS'corner::@::book'
p4267
aS'beach::@::debris'
p4268
aS'ground::@::corps'
p4269
aS'amount::@::year'
p4270
aS'license::@::consumption'
p4271
aS'matter::@::promotion_of_welfare'
p4272
aS'cottage::@::garden'
p4273
aS'center::@::valley'
p4274
aS'tooth::@::time'
p4275
aS'unity::@::topography'
p4276
aS'jesus::@::arm'
p4277
aS'christ::@::rest'
p4278
aS'girl::@::straw'
p4279
aS'need::@::gratuity'
p4280
aS'level::@::basement'
p4281
aS'spirit::@::pathway'
p4282
aS'dove::@::vulture'
p4283
aS'dress::@::lace'
p4284
aS'garment::@::one'
p4285
aS'handkerchief::@::lace'
p4286
aS'cord::@::book'
p4287
aS'hat::@::gold_lace'
p4288
aS'string::@::jewel'
p4289
aS'cocked_hat::@::gold_lace'
p4290
aS'wing::@::whisker'
p4291
aS'dress::@::skirt'
p4292
aS'elephant::@::animal'
p4293
aS'elephant::@::head'
p4294
aS'hand::@::dale'
p4295
aS'fometimes::@::trade'
p4296
aS'lover::@::story'
p4297
aS'fox::@::eye'
p4298
aS'work::@::spirit'
p4299
aS'intervening_door::@::eye'
p4300
aS'door::@::eye'
p4301
aS'fox::@::head'
p4302
aS'counsel::@::chain_of_circumstance'
p4303
aS'fox::@::progress'
p4304
aS'ministry::@::arrival_in_france'
p4305
aS'council::@::arrival_of_fisherman'
p4306
aS'master::@::contract'
p4307
aS'plaintiff::@::error'
p4308
aS'mean::@::approaching_danger'
p4309
aS'small_alteration::@::dualism'
p4310
aS'ayxa::@::design_of_monarch'
p4311
aS'guatemozin::@::arrival'
p4312
aS'learned_counsel::@::chain'
p4313
aS'andre::@::sentence'
p4314
aS'signor_grimaldi::@::existence'
p4315
aS'king::@::author'
p4316
aS'highness::@::precise_object'
p4317
aS'earl::@::success'
p4318
aS'signor_grimaldi::@::existence_of_latter'
p4319
aS'indian::@::approach'
p4320
aS'government::@::intention'
p4321
aS'obstinate_resistance::@::difficulty_of_expedition'
p4322
aS'visitor::@::death'
p4323
aS'fox::@::rat'
p4324
aS'movement::@::young_infant'
p4325
aS'improvement::@::cent'
p4326
aS'clasp_reflex::@::muscle'
p4327
aS'dulness::@::umbilical_region'
p4328
aS'avoidance_movement::@::young_infant'
p4329
aS'deletion::@::mitochondrion'
p4330
aS'effect::@::animal'
p4331
aS'change::@::vessel'
p4332
aS'pattern_of_manifestation::@::capable_patient'
p4333
aS'knife_reflex::@::muscle'
p4334
aS'aggression::@::rat'
p4335
aS'pain::@::position'
p4336
aS'analysis::@::brain'
p4337
aS'milk_protein::@::colicky_infant'
p4338
aS'mention::@::many_quarter'
p4339
aS'painful_sensation::@::tissue'
p4340
aS'tenderness::@::upper_quadrant'
p4341
aS'j::@::normal_neonate'
p4342
aS'glove::@::fabric'
p4343
aS'blackguard::@::monkey'
p4344
aS'horselberg::@::ridge'
p4345
aS'hall::@::neighbour'
p4346
aS'ruin::@::arab'
p4347
aS'look::@::while'
p4348
aS'horse::@::bit'
p4349
aS'@::edge_into^-1::flint'
p4350
aS'men::@::dipper'
p4351
aS'hill::run_in::@'
p4352
aS'@::look^-1::doubt'
p4353
aS'strand::@::third'
p4354
aS'horse::@::hay'
p4355
aS'solution::@::result'
p4356
aS'doubt::look::@'
p4357
aS'ohio::@::success'
p4358
aS'garibaldi::@::delay'
p4359
aS'flint::edge_into::@'
p4360
aS'heart::@::bosom'
p4361
aS'mobil::@::acquisition'
p4362
aS'club::@::statesman'
p4363
aS'ocean::@::outwork'
p4364
aS'hotel::@::room'
p4365
aS'class::@::tile'
p4366
aS'level::@::chance'
p4367
aS'privateer::@::lee'
p4368
aS'film::@::accessibility'
p4369
aS'house::@::house'
p4370
aS'public::@::range'
p4371
aS'paragraph::@::hour'
p4372
aS'time::@::planet'
p4373
aS'office::@::room'
p4374
aS'house::@::time'
p4375
aS'mail::@::gram'
p4376
aS'mile::@::cost'
p4377
aS'cab::@::musician'
p4378
aS'jacket::@::shoulder'
p4379
aS'cloth::@::head'
p4380
aS'boy::@::shoulder'
p4381
aS'hope::@::thing'
p4382
aS'arm::@::eye'
p4383
aS'arm::@::chest'
p4384
aS'hand::@::waist'
p4385
aS'knife::@::sword'
p4386
aS'colour::@::day'
p4387
aS'library::@::man'
p4388
aS'port::@::man'
p4389
aS'church::@::griffin'
p4390
aS'physic::@::third_granada'
p4391
aS'university_of_padua::@::bologna'
p4392
aS'cambridge::@::peirce'
p4393
aS'hall::@::boyden'
p4394
aS'reign::@::byzantine'
p4395
aS'economy::@::wicksell'
p4396
aS'oxford::@::people_from_source'
p4397
aS'week::@::professor'
p4398
aS'california::@::greeley'
p4399
aS'depth::@::cascade'
p4400
aS'india::@::chunder_sen'
p4401
aS'systematic_theology::@::thiessen'
p4402
aS'europe::@::ha'
p4403
aS'academy::@::plato'
p4404
aS'philosophy::@::content'
p4405
aS'nave::@::dominican'
p4406
aS'place::@::james'
p4407
aS'lion::@::bull'
p4408
aS'men::@::animal'
p4409
aS'kind::@::victim'
p4410
aS'sledge::@::mammal'
p4411
aS'thing::@::impression'
p4412
aS'person::@::animal'
p4413
aS'croft::@::divinity'
p4414
aS'men::@::lion'
p4415
aS'native::@::party'
p4416
aS'manchu::@::root'
p4417
aS'esca::@::tiger'
p4418
aS'dog::@::animal'
p4419
aS'water::@::cave'
p4420
aS'lion::@::tiger'
p4421
aS'missile::@::head'
p4422
aS'crowd::@::courthouse'
p4423
aS'affront::@::russia'
p4424
aS'while::@::public'
p4425
aS'invective::@::enemy'
p4426
aS'brick::@::police'
p4427
aS'many_patriot::@::british_government'
p4428
aS'thrower::@::animal'
p4429
aS'blackstone::@::head'
p4430
aS'defiance::@::host'
p4431
aS'outburst::@::prisoner_of_war'
p4432
aS'same_doom::@::head'
p4433
aS'member::@::miscreant'
p4434
aS'massacre::@::race'
p4435
aS'amount::@::clerk'
p4436
aS'child::@::father'
p4437
aS'open_defiance::@::european_force'
p4438
aS'man::@::enemy'
p4439
aS'hector::@::ajax'
p4440
aS'missile::@::devoted_head'
p4441
aS'group::@::group'
p4442
aS'missile::@::warhead'
p4443
aS'aspect::@::rock'
p4444
aS'knife::@::rest'
p4445
aS'carr::drive::@'
p4446
aS'orsini::turn::@'
p4447
aS'ball::@::exclamation'
p4448
aS'motorcycle::@::car'
p4449
aS'tennessee::@::lackawanna'
p4450
aS'warning::ride::@'
p4451
aS'speed::operate_at^-1::@'
p4452
aS'hat::@::men'
p4453
aS'musket::@::bow'
p4454
aS'meat::@::chile'
p4455
aS'dinner::@::vegetable'
p4456
aS'potato::@::skin'
p4457
aS'pan::@::liquid'
p4458
aS'oven::@::water'
p4459
aS'influence::@::pressure'
p4460
aS'pheasant::@::head'
p4461
aS'gathering::@::partisan'
p4462
aS'family::@::antoinette'
p4463
aS'district::@::customer'
p4464
aS'restaurant::@::garden'
p4465
aS'shirt::@::cuff'
p4466
aS'snake::@::venom'
p4467
aS'wheel::@::gravel'
p4468
aS'man::@::stream_of_juice'
p4469
aS'@::go_with^-1::point'
p4470
aS'man::@::juice'
p4471
aS'cloud::@::drop'
p4472
aS'drab::@::curse'
p4473
aS'dey::put::@'
p4474
aS'revolver::@::fire'
p4475
aS'gun::@::death'
p4476
aS'machine::@::card'
p4477
aS'point::go_with::@'
p4478
aS'machine_gun::@::bullet'
p4479
aS'woman::@::blood'
p4480
aS'sparrow::@::bird'
p4481
aS'time::@::interchange'
p4482
aS'tree::@::cloud'
p4483
aS'stuart::@::information'
p4484
aS'soldier::@::sithron'
p4485
aS'rock::@::man'
p4486
aS'leaf::@::flower'
p4487
aS'truck::@::driver'
p4488
aS'vehicle::@::driver'
p4489
aS'door::@::principle'
p4490
aS'car::@::man'
p4491
aS'van::@::someone'
p4492
aS'truck::@::top'
p4493
aS'crowd::@::stoop'
p4494
aS'pressure::@::piston'
p4495
aS'particle::@::particle'
p4496
aS'napoleon::@::war_with_delight'
p4497
aS'fairfax::@::troop'
p4498
aS'guildmasters::@::side_by_class'
p4499
aS'artist::@::boundary_of_obscenity'
p4500
aS'frame::@::stack'
p4501
aS'doc::@::back_of_head'
p4502
aS'grant::@::left'
p4503
aS'government::@::work'
p4504
aS'plant::@::new_growth'
p4505
aS'hat::@::neck'
p4506
aS'timmons::@::option'
p4507
aS'powerful_friend::@::road'
p4508
aS'troop::@::front'
p4509
aS'road::@::wheel'
p4510
aS'company::@::left_of_wood'
p4511
aS'preparation::@::apace'
p4512
aS'turtle::@::shell'
p4513
aS'philosopher::@::wakefulness'
p4514
aS'sound::@::thick_wall'
p4515
aS'vision::@::aspect'
p4516
aS'man::@::slavery'
p4517
aS'water::@::space'
p4518
aS'whispering::@::substance'
p4519
aS'carlyle::@::obstruction'
p4520
aS'van::@::back'
p4521
aS'van::@::car'
p4522
aS'sedan::@::car'
p4523
aS'car::@::sedan'
p4524
aS'men::@::goer'
p4525
aS'bank::@::wife'
p4526
aS'promontory::@::boat'
p4527
aS'kind::@::finger'
p4528
aS'problem::@::tool'
p4529
aS'ship::@::toothbrush'
p4530
aS'cavity::@::wariness'
p4531
aS'psychologist::@::success'
p4532
aS'chapter::@::sketch'
p4533
aS'morning::@::toothbrush'
p4534
aS'whale::@::food'
p4535
aS'@::seem_for^-1::hat'
p4536
aS'mushroom::@::sugar'
p4537
aS'mechanism::@::customer'
p4538
aS'hat::seem_for::@'
p4539
aS'whale::@::head'
p4540
aS'tongue::@::grove'
p4541
aS'tongue::@::palm_grove'
p4542
aS'bed::@::straw'
p4543
aS'bed_among_people::@::side_straw'
p4544
aS'day_bed::@::straw'
p4545
aS'tree::@::bitch'
p4546
aS'anarchy::@::fluted_bone'
p4547
aS'dress::@::back'
p4548
aS'blouse::@::front'
p4549
aS'root::@::water'
p4550
aS'material::@::water'
p4551
aS'metal::@::water'
p4552
aS'specimen::@::water'
p4553
aS'surface::@::water'
p4554
aS'fiber::@::water'
p4555
aS'body::@::gas'
p4556
aS'crystal::@::water'
p4557
aS'electrode::@::water'
p4558
aS'change::@::lead'
p4559
aS'loop::@::water'
p4560
aS'pail::@::water'
p4561
aS'smear::@::water'
p4562
aS'film::@::distilled_water'
p4563
aS'area::@::water'
p4564
aS'sheet::@::water'
p4565
aS'cell::@::distilled_water'
p4566
aS'figure::@::top'
p4567
aS'kiln::@::side'
p4568
aS'bowl::@::outside'
p4569
aS'face::@::side'
p4570
aS'piece::@::side'
p4571
aS'word::@::base'
p4572
aS'sea::@::coast'
p4573
aS'cabbage::@::leaf'
p4574
aS'cannon::@::muzzle'
p4575
aS'castle::@::defence'
p4576
aS'garrison::@::day'
p4577
aS'sir_allan::@::day'
p4578
aS'castle::@::half'
p4579
aS'castle::@::siege'
p4580
aS'other_town::@::money'
p4581
aS'town::@::week'
p4582
aS'seymour::@::meal'
p4583
aS'cathedral::@::building'
p4584
aS'province::@::name'
p4585
aS'thing::@::name'
p4586
aS'cathedral::@::stone'
p4587
aS'rest::@::usual_hematite'
p4588
aS'irony::@::falsehood'
p4589
aS'church::@::marble_of_temple'
p4590
aS'reservoir::@::sort'
p4591
aS'voice_in_throat::@::earth'
p4592
aS'salt::@::silver'
p4593
aS'tool::@::stone'
p4594
aS'head::@::gold'
p4595
aS'simple_dress::@::bright_gingham'
p4596
aS'life::@::death'
p4597
aS'rod::@::wood'
p4598
aS'figure::@::white_plaster'
p4599
aS'implement::@::stone'
p4600
aS'farm_dress::@::bright_gingham'
p4601
aS'reservoir::@::sort_of_stone'
p4602
aS'gate::@::gray_stone'
p4603
aS'strange_soul::@::satan'
p4604
aS'large_work::@::material'
p4605
aS'only_instrument::@::stone'
p4606
aS'chair::@::arm'
p4607
aS'side::@::step'
p4608
aS'head::@::letter'
p4609
aS'shoulder::@::head'
p4610
aS'cooling::@::darkness'
p4611
aS'cloak::@::garment'
p4612
aS'paper::@::thing'
p4613
aS'crow::@::eye'
p4614
aS'mine::@::water'
p4615
aS'greek::@::end'
p4616
aS'lordship::@::dinner'
p4617
aS'pigeon::@::grain'
p4618
aS'vice::@::platitude'
p4619
aS'man::@::estaminet'
p4620
aS'american::@::meal'
p4621
aS'cattle::@::pleasure'
p4622
aS'captain::@::banquet'
p4623
aS'time::@::clapham'
p4624
aS'@::call^-1::saint'
p4625
aS'heaven::be_in^-1::@'
p4626
aS'@::be_in::heaven'
p4627
aS'angel::echo::@'
p4628
aS'@::echo^-1::angel'
p4629
aS'desk::@::table'
p4630
aS'highway::@::shaft'
p4631
aS'peacock::@::outskirt'
p4632
aS'vampire::@::retreat'
p4633
aS'donkey::@::horse'
p4634
aS'babe::@::light'
p4635
aS'male::@::female'
p4636
aS'female::@::male'
p4637
aS'movable::@::immovable'
p4638
aS'ideal::@::sense'
p4639
aS'rig::@::friend'
p4640
aS'traveling::@::olden_time'
p4641
aS'dove::@::eagle'
p4642
aS'bowl::@::animal'
p4643
aS'dress::@::robe'
p4644
aS'army::@::army'
p4645
aS'air::@::arm'
p4646
aS'reason::@::nothing'
p4647
aS'point::@::supply'
p4648
aS'remus::@::citizen'
p4649
aS'nation::@::foothold'
p4650
aS'frigate::@::vessel'
p4651
aS'garlic::@::parsley'
p4652
aS'shallot::@::clove'
p4653
aS'garlic::@::cup'
p4654
aS'cup::@::pepper'
p4655
aS'effect_of_impact::@::study'
p4656
aS'goose::@::wing'
p4657
aS'pulp::@::juice'
p4658
aS'grape::@::juice'
p4659
aS'ground::@::hettites'
p4660
aS'nipple::@::fluid'
p4661
aS'seed_of_plant::@::oil'
p4662
aS'garage::@::automobile'
p4663
aS'quarter::@::invitation'
p4664
aS'acme::@::interval'
p4665
aS'seed::@::oil'
p4666
aS'cane::@::juice'
p4667
aS'fruit::@::juice'
p4668
aS'moon::@::tower'
p4669
aS'horse::@::deer'
p4670
aS'lining::@::cement'
p4671
aS'stone::@::manner'
p4672
aS'brick::@::close'
p4673
aS'egg::@::restoration'
p4674
aS'outflow::@::bank'
p4675
aS'drosophila_egg::@::restoration'
p4676
aS'jar::@::jam'
p4677
aS'tube::@::end'
p4678
aS'jar::@::top'
p4679
aS'leaf::@::base'
p4680
aS'hole::@::bottom'
p4681
aS'space::@::end'
p4682
aS'catch::@::present'
p4683
aS'lack::@::cost'
p4684
aS'officer::@::carrickfergus'
p4685
aS'abdomen::@::tip'
p4686
aS'horse::@::gallop'
p4687
aS'jet::@::fuel'
p4688
aS'experiment::@::evaluation'
p4689
aS'hose::@::water'
p4690
aS'digestibility_experiment::@::evaluation'
p4691
aS'hose::@::air'
p4692
aS'pipe::@::slurry'
p4693
aS'hole::@::water'
p4694
aS'lagarta::be_of^-1::@'
p4695
aS'lion::@::beast'
p4696
aS'owl::@::head'
p4697
aS'@::throw_without::warning'
p4698
aS'@::throw_in::century'
p4699
aS'girl::pour::@'
p4700
aS'@::pour^-1::girl'
p4701
aS'warning::throw_without^-1::@'
p4702
aS'lamp::turn_on::@'
p4703
aS'mountain::@::sheer'
p4704
aS'virtuous::@::pain'
p4705
aS'rondaine::@::anything'
p4706
aS'bologna::@::study'
p4707
aS'horse::@::speed'
p4708
aS'restaurant::@::dish'
p4709
aS'restaurant::@::floor'
p4710
aS'restaurant::@::meal'
p4711
aS'neighborhood::@::land'
p4712
aS'town::@::ton'
p4713
aS'america::@::hamburger'
p4714
aS'way::@::estate'
p4715
aS'case::@::camp'
p4716
aS'cloud::@::commodity'
p4717
aS'animal::@::bowl'
p4718
aS'robe::@::dress'
p4719
aS'salmon::@::fish'
p4720
aS'symptom::@::circumstance'
p4721
aS'sheep::@::cow'
p4722
aS'bed::@::foot'
p4723
aS'sale::@::percent'
p4724
aS'sex::@::depravity'
p4725
aS'sex::@::resultant_depravity'
p4726
aS'meaning::@::world'
p4727
aS'stove::@::gas'
p4728
aS'tiger::@::lion'
p4729
aS'far::@::seaward'
p4730
aS'feminine_area::@::male_author'
p4731
aS'there::@::peter_country'
p4732
aS'capitalist::@::labor'
p4733
aS'same_destiny::@::material_organism'
p4734
aS'won::@::play'
p4735
aS'land::@::williams'
p4736
aS'such_area::@::author'
p4737
aS'unknown_man::@::saintsbury'
p4738
aS'love::@::bhata'
p4739
aS'folk_of_god::@::may'
p4740
aS'bare::@::men'
p4741
aS'area_as_history::@::male_author'
p4742
aS'sperimentare_esperienza::@::experiment'
p4743
aS'juan::@::devil'
p4744
aS'site::@::traveller'
p4745
aS'shade::@::own_child'
p4746
aS'needy::@::merry_man'
p4747
aS'new_york::@::sample'
p4748
aS'tiger::@::tail'
p4749
aS'trout::@::head'
p4750
aS'wrist::@::watch'
p4751
aS'back::@::mother'
p4752
aS'truck::@::carriage'
p4753
aS'back::@::baby'
p4754
aS'back::@::rifle'
p4755
aS'truck::@::frame'
p4756
aS'battleship::@::ship'
p4757
aS'bear::@::beast'
p4758
aS'bed::@::couch'
p4759
aS'egg_white::@::mixture'
p4760
aS'program::@::program'
p4761
aS'white::@::mixture'
p4762
aS'floor::@::creole'
p4763
aS'ruff::@::chin'
p4764
aS'horizon::@::row'
p4765
aS'prairie::@::wagon'
p4766
aS'blouse::@::trouser'
p4767
aS'pool::@::runnin'
p4768
aS'box::@::color'
p4769
aS'mode::@::docility'
p4770
aS'sequence::@::register'
p4771
aS'mode::@::cleverness'
p4772
aS'rock::@::analysis'
p4773
aS'standard_of_duke::@::inducement'
p4774
aS'box::@::content'
p4775
aS'extension_line::@::text'
p4776
aS'castle::@::stone'
p4777
aS'sodom::@::lord'
p4778
aS'scale::@::accretion'
p4779
aS'brenda::@::harriet'
p4780
aS'literature::@::statistical_worker'
p4781
aS'legend::@::story'
p4782
aS'rest::@::end'
p4783
aS'rhyme::@::interval'
p4784
aS'apocalyptist::@::imperfect'
p4785
aS'person::@::circumstance'
p4786
aS'stair::@::whittaker'
p4787
aS'court_dress::@::slave'
p4788
aS'such_name::@::reality'
p4789
aS'bed::@::presence_of_mind'
p4790
aS'swell_of_attire::@::weapon'
p4791
aS'surface::@::lie'
p4792
aS'water::@::part_of_body'
p4793
aS'official_form::@::incapacity'
p4794
aS'veil::@::influence'
p4795
aS'garb::@::holmes'
p4796
aS'guise::@::grawler_like_brutus'
p4797
aS'cloak::@::betts'
p4798
aS'manner::@::men'
p4799
aS'disguise::@::sentiment'
p4800
aS'fibre::@::nezahualcoyotl'
p4801
aS'cool_exterior::@::hutchinson_of_massachusetts'
p4802
aS'coat::@::instrument'
p4803
aS'imperfect_word::@::noun'
p4804
aS'enthusiasm_for_age::@::enthusiasm_for_art'
p4805
aS'coat::@::pocket'
p4806
aS'cottage::@::wood'
p4807
aS'deer::@::horse'
p4808
aS'word::@::man'
p4809
aS'dolphin::@::creature'
p4810
aS'lame::@::hart'
p4811
aS'heart::@::leap'
p4812
aS'heart::@::sturgeon_leap'
p4813
aS'arthur::@::flame_of_fire'
p4814
aS'last_sign::@::mountain_cat'
p4815
aS'boy::@::hound'
p4816
aS'great_flame::@::top_at_edge'
p4817
aS'tiny_volcano::@::patting'
p4818
aS'sign_of_cross::@::mountain_cat'
p4819
aS'stream::@::cascade'
p4820
aS'strong_heart::@::leap'
p4821
aS'dog::@::dog'
p4822
aS'lincoln::@::opponent_of_douglas'
p4823
aS'word::@::word'
p4824
aS'wood::@::leaf_amid_yellow'
p4825
aS'old_age::@::saddle'
p4826
aS'flea::@::caprice_dictate'
p4827
aS'phrase::@::flame_in_grate'
p4828
aS'dove::@::hawk'
p4829
aS'people::@::parasite_parvum'
p4830
aS'woman::@::man'
p4831
aS'dress::@::pattern'
p4832
aS'eagle::@::talon'
p4833
aS'beast::@::teeth'
p4834
aS'arm::@::contumely'
p4835
aS'world::@::theory'
p4836
aS'toe::@::hand'
p4837
aS'girl::@::hand'
p4838
aS'james::@::hand'
p4839
aS'colony::@::dissension'
p4840
aS'result::@::sin'
p4841
aS'deficient::@::excess'
p4842
aS'ferry::@::car'
p4843
aS'share::@::men'
p4844
aS'colonel::@::one'
p4845
aS'treatment::@::treatment'
p4846
aS'piper::@::burn'
p4847
aS'dress::@::occupation'
p4848
aS'island::@::majority'
p4849
aS'slave::@::population'
p4850
aS'metal::@::metal'
p4851
aS'pen::@::notebook'
p4852
aS'pistol::@::floor'
p4853
aS'pen::@::pad'
p4854
aS'tray::@::floor'
p4855
aS'fork::@::table'
p4856
aS'plate::@::table'
p4857
aS'gun::@::floor'
p4858
aS'pencil::@::pad'
p4859
aS'sword::@::floor'
p4860
aS'foot::@::floor'
p4861
aS'wind::@::troop'
p4862
aS'student::@::area'
p4863
aS'burnside::@::yard'
p4864
aS'walker::@::mile'
p4865
aS'legend::@::minute'
p4866
aS'frog::@::leg'
p4867
aS'frog::@::snake'
p4868
aS'insect::@::kind'
p4869
aS'mind::@::fate'
p4870
aS'life::@::life'
p4871
aS'mind::@::event'
p4872
aS'part::constitute^-1::@'
p4873
aS'@::constitute::part'
p4874
aS'whisky::make_from::@'
p4875
aS'tablespoon::@::potato'
p4876
aS'garlic::@::potato'
p4877
aS'instant::@::potato'
p4878
aS'use::@::berry'
p4879
aS'@::make_from^-1::whisky'
p4880
aS'mother::@::drop'
p4881
aS'scum::@::aggregate'
p4882
aS'case::@::truth'
p4883
aS'model::@::nucleic_structure'
p4884
aS'model::@::acid_structure'
p4885
aS'model::@::structure'
p4886
aS'hat::@::crown'
p4887
aS'hair::@::crown_of_head'
p4888
aS'boat::@::side'
p4889
aS'ox::@::ascent'
p4890
aS'hair::@::neck'
p4891
aS'feather::@::head'
p4892
aS'mountain::@::point'
p4893
aS'hair::@::side'
p4894
aS'plaid::@::breast'
p4895
aS'pole::@::top'
p4896
aS'wing::@::side'
p4897
aS'bed::@::others'
p4898
aS'austrian::@::seine'
p4899
aS'hawk::@::eye'
p4900
aS'end::@::circumference'
p4901
aS'zenodorus::@::robber'
p4902
aS'horse::@::bull'
p4903
aS'steam_valve::@::steam'
p4904
aS'top::@::puff'
p4905
aS'sun::@::pigeon'
p4906
aS'side::@::king'
p4907
aS'instant::@::complainant'
p4908
aS'wolf::@::borzoi'
p4909
aS'door::@::burra'
p4910
aS'horse::@::rhinoceros'
p4911
aS'man::@::bull'
p4912
aS'wolf::@::young_borzoi'
p4913
aS'point::@::guard'
p4914
aS'distance::@::indian'
p4915
aS'gateway::@::rumbling'
p4916
aS'thought::@::blood'
p4917
aS'low_valve::@::steam'
p4918
aS'back::@::defender'
p4919
aS'quarter::@::harrow'
p4920
aS'valve::@::steam'
p4921
aS'wolf::@::yellowish_borzoi'
p4922
aS'horse::@::donkey'
p4923
aS'horse::@::elephant'
p4924
aS'woman::@::threat'
p4925
aS'color::@::glittering'
p4926
aS'musician::@::latter'
p4927
aS'place::@::crowd'
p4928
aS'fiber::@::cell'
p4929
aS'fish::@::carp'
p4930
aS'member::@::approach'
p4931
aS'incident::@::one'
p4932
aS'mind::@::monk'
p4933
aS'horse::@::neck'
p4934
aS'rope::@::neck'
p4935
aS'white_line::@::shore'
p4936
aS'horse::@::grass'
p4937
aS'line_of_surf::@::shore'
p4938
aS'bell::@::neck'
p4939
aS'shakespeare::@::hand'
p4940
aS'master::@::bed'
p4941
aS'stone::@::neck'
p4942
aS'men::@::neck'
p4943
aS'negro::@::white'
p4944
aS'arm::@::thigh'
p4945
aS'hotel::@::building'
p4946
aS'home::@::building'
p4947
aS'place::@::building'
p4948
aS'part::@::company'
p4949
aS'part::@::station'
p4950
aS'school::@::college'
p4951
aS'hospital::@::building'
p4952
aS'residence::@::house'
p4953
aS'museum::@::building'
p4954
aS'protection::@::fort'
p4955
aS'dormitory::@::hall'
p4956
aS'part::@::facility'
p4957
aS'specimen::@::library'
p4958
aS'memorial::@::library'
p4959
aS'bridge::@::bridge'
p4960
aS'structure::@::building'
p4961
aS'hotel::@::pool'
p4962
aS'jar::@::outside'
p4963
aS'prevention::@::convention'
p4964
aS'purpose::@::steel'
p4965
aS'library::@::building'
p4966
aS'student::@::school'
p4967
aS'population::@::area_in_district'
p4968
aS'capacity::@::sodium_production'
p4969
aS'lens::@::nodal_plane'
p4970
aS'mating::@::type'
p4971
aS'view::@::drain'
p4972
aS'library::@::shelf'
p4973
aS'gallery::@::one'
p4974
aS'face::@::lord'
p4975
aS'lion::@::ear'
p4976
aS'lion::@::eye'
p4977
aS'beelzebub::@::aspect'
p4978
aS'ship::@::wind'
p4979
aS'fish_in_river::@::face'
p4980
aS'dedalus::@::eye'
p4981
aS'picture::@::eye'
p4982
aS'flame::@::eye_of_men'
p4983
aS'hideous_situation::@::eye'
p4984
aS'cattle::@::crow'
p4985
aS'blue::@::difficulty'
p4986
aS'tawny_lion::@::eye'
p4987
aS'spark_of_fire::@::eyeball'
p4988
aS'lame::@::eye'
p4989
aS'flame::@::eye'
p4990
aS'everything::@::eye'
p4991
aS'situation::@::eye'
p4992
aS'day::@::headquarters'
p4993
aS'gregor::@::smile'
p4994
aS'meletus::@::everybody'
p4995
aS'lion::@::nose'
p4996
aS'squib::@::wag'
p4997
aS'sasa::@::lantern'
p4998
aS'contrast::@::difference'
p4999
aS'bruce::@::town'
p5000
aS'twentyman::@::time'
p5001
aS'onion::@::carrot'
p5002
aS'fruit::@::cup'
p5003
aS'green_pepper::@::tomato'
p5004
aS'pepper::@::tomato'
p5005
aS'red_bell::@::cup'
p5006
aS'garlic::@::oil'
p5007
aS'pepper::@::tablespoon'
p5008
aS'onion::@::potato'
p5009
aS'apple::@::cup'
p5010
aS'tomato::@::garlic'
p5011
aS'turnip::@::woman'
p5012
aS'salt::@::potato'
p5013
aS'light::@::colour'
p5014
aS'seaman::@::land'
p5015
aS'chemotherapy::@::mp'
p5016
aS'truss::@::right'
p5017
aS'vegetable::@::water'
p5018
aS'grahame::@::own_hand'
p5019
aS'combine::@::sauce'
p5020
aS'food::@::spice'
p5021
aS'berliner::@::fruit'
p5022
aS'people::@::margarine'
p5023
aS'chip::@::steam'
p5024
aS'cup::@::flour'
p5025
aS'fillet::@::ounce'
p5026
aS'pea::@::pork'
p5027
aS'vegetable::@::skin'
p5028
aS'men::@::stone'
p5029
aS'bean::@::bacon'
p5030
aS'meat::@::red_pepper'
p5031
aS'maid_augustine::@::pepper'
p5032
aS'cook::@::chicken'
p5033
aS'meat::@::kidney_fat'
p5034
aS'heart_of_bullock::@::deal_of_relish'
p5035
aS'risk::@::individuality'
p5036
aS'awareness::@::influence'
p5037
aS'law::@::court'
p5038
aS'foundation::@::jobbing'
p5039
aS'ocean::@::thunder'
p5040
aS'rotor::@::impact'
p5041
aS'breath::@::charge'
p5042
aS'russia::@::german'
p5043
aS'gun::@::fire'
p5044
aS'wind::@::impact'
p5045
aS'proton::@::ray'
p5046
aS'conceit::@::circumstance'
p5047
aS'rifle::@::bullet'
p5048
aS'wind::@::display'
p5049
aS'romance::@::experience'
p5050
aS'wind::@::blow'
p5051
aS'star::@::fall'
p5052
aS'turmoil::@::savage'
p5053
aS'night::@::bedside'
p5054
aS'night::@::side'
p5055
aS'turmoil_in_view::@::savage'
p5056
aS'head::@::order'
p5057
aS'verena::@::southerner'
p5058
aS'coat::@::chivalry_of_band'
p5059
aS'baroness::@::girl'
p5060
aS'television::@::channel'
p5061
aS'television::@::system'
p5062
aS'fable::@::metre'
p5063
aS'book::@::verse'
p5064
aS'diver::@::man'
p5065
aS'look::@::cloud'
p5066
aS'weed::@::old_slav'
p5067
aS'elderly_beggar::@::wall'
p5068
aS'diver::@::tall_man'
p5069
aS'apple::@::pear'
p5070
aS'july::@::fruit'
p5071
aS'premenopausal_woman::@::behavior'
p5072
aS'season::@::foliage'
p5073
aS'oocyte::@::production'
p5074
aS'measure::@::congress'
p5075
aS'year::@::fig'
p5076
aS'crop::@::part'
p5077
aS'umsinene_river::@::pool'
p5078
aS'primary_oocyte::@::production'
p5079
aS'fruit::@::plant'
p5080
aS'seed::@::plant'
p5081
aS'river::@::pool'
p5082
aS'root::@::cutting'
p5083
aS'character::@::solitude'
p5084
aS'worker::@::occupation'
p5085
aS'physical_structure::@::stage'
p5086
aS'human_oocyte::@::production'
p5087
aS'plan::@::jeroboam'
p5088
aS'plan::@::napoleon'
p5089
aS'bag::@::container'
p5090
aS'bed::@::chair'
p5091
aS'bowl::@::inside'
p5092
aS'bowl::@::plate'
p5093
aS'box::@::box'
p5094
aS'toolbar::@::toolbar'
p5095
aS'dialog_box::@::box'
p5096
aS'letter::@::letter'
p5097
aS'coil::@::coil'
p5098
aS'object::@::object'
p5099
aS'effect::@::effect'
p5100
aS'case::@::coffin'
p5101
aS'hollow_sphere::@::sphere_of_radius'
p5102
aS'manner::@::cream'
p5103
aS'sphere::@::sphere_of_radius'
p5104
aS'uninsulated_sphere::@::sphere'
p5105
aS'file::@::file'
p5106
aS'title::@::title'
p5107
aS'percentage::@::percentage'
p5108
aS'stratum::@::mass'
p5109
aS'distinction::@::domain'
p5110
aS'word::@::quotation_mark'
p5111
aS'box::@::paper'
p5112
aS'box::@::book'
p5113
aS'boat::@::people'
p5114
aS'butterfly::@::bee'
p5115
aS'canute::@::king'
p5116
aS'stalk::@::carrot'
p5117
aS'cucumber::@::cup'
p5118
aS'cloak::@::back'
p5119
aS'line::@::own_breast'
p5120
aS'sun::@::sky'
p5121
aS'line::@::breast'
p5122
aS'old_woman::@::head'
p5123
aS'fruit::@::tree'
p5124
aS'fish::@::rock'
p5125
aS'ladder::@::wall'
p5126
aS'coat::@::jacket'
p5127
aS'face::@::black_hair'
p5128
aS'question::@::purpose'
p5129
aS'sun::@::edgar'
p5130
aS'eye::@::tree'
p5131
aS'cottage::@::roof'
p5132
aS'speech::@::view'
p5133
aS'code::@::margin'
p5134
aS'statute::@::regard'
p5135
aS'question::@::apparent_purpose'
p5136
aS'eye::@::long_lash'
p5137
aS'crow::@::beak'
p5138
aS'specie::@::bird'
p5139
aS'crow::@::creature'
p5140
aS'trunk::@::million'
p5141
aS'bush::@::guidance_of_impression'
p5142
aS'new_beginning::@::fellow_tribesman'
p5143
aS'mouse::@::owl'
p5144
aS'crow::@::foot'
p5145
aS'rabinovitch::@::foot'
p5146
aS'oxygen::@::deficient'
p5147
aS'gold::@::government'
p5148
aS'wagon::@::men'
p5149
aS'subject::@::man'
p5150
aS'falcon::@::bird'
p5151
aS'city::@::embodiment'
p5152
aS'patnoggin::@::fleece'
p5153
aS'frigate::@::sail'
p5154
aS'cent::@::raid'
p5155
aS'goat::@::ear'
p5156
aS'furnace::@::vent'
p5157
aS'time::@::chiswick'
p5158
aS'diverse_consideration::@::country'
p5159
aS'goat::@::eye'
p5160
aS'roof_timber::@::end'
p5161
aS'grape::@::skin'
p5162
aS'fate::@::election'
p5163
aS'fate::@::insurrection'
p5164
aS'important_transaction::@::contract'
p5165
aS'friendship::@::blood_covenant'
p5166
aS'reconciliation::@::dinner'
p5167
aS'same_impression::@::force'
p5168
aS'fate::@::first_foot'
p5169
aS'crack::@::injection'
p5170
aS'today::@::holy_spirit'
p5171
aS'layer::@::floor'
p5172
aS'mission::@::miracle'
p5173
aS'conquest_of_italy::@::defeat_of_alvinzi'
p5174
aS'face::@::wall'
p5175
aS'same_impression::@::force_of_king'
p5176
aS'lock_of_gun::@::government_official'
p5177
aS'order::@::judge'
p5178
aS'mouth::@::oath'
p5179
aS'downpipe::@::liquid_on_plate'
p5180
aS'chamber::@::diaphragm'
p5181
aS'hammer::@::iron'
p5182
aS'possible_change::@::plot'
p5183
aS'partner::@::category'
p5184
aS'portal::@::gottlieb'
p5185
aS'foot::@::poem'
p5186
aS'upper::@::lip'
p5187
aS'denomination::@::king'
p5188
aS'gallows::@::wagon'
p5189
aS'child::@::trader'
p5190
aS'woman::@::return'
p5191
aS'lee::@::orvilliers'
p5192
aS'change::@::plot'
p5193
aS'curve::@::column'
p5194
aS'poet::@::wit'
p5195
aS'hark::@::year'
p5196
aS'hark::@::beak'
p5197
aS'hawk::@::beak'
p5198
aS'horse::@::animal'
p5199
aS'decorum::@::composure'
p5200
aS'hospital::@::hotel'
p5201
aS'leg_of_horse::@::cross'
p5202
aS'body::@::cork'
p5203
aS'leg::@::cross'
p5204
aS'distance::@::jaw'
p5205
aS'person::@::deer'
p5206
aS'head::@::buoy'
p5207
aS'anything::@::spangle'
p5208
aS'shock::@::furzebush'
p5209
aS'spire::@::spike'
p5210
aS'jet::@::window'
p5211
aS'match::@::crevice'
p5212
aS'landing::@::hour'
p5213
aS'knife::@::life'
p5214
aS'library::@::cell'
p5215
aS'plasmid::@::cell_line'
p5216
aS'plasmid::@::cell'
p5217
aS'dna::@::cell'
p5218
aS'respect::@::laplace'
p5219
aS'genome::@::cell'
p5220
aS'receptor::@::cell'
p5221
aS'gene::@::cell'
p5222
aS'recombinant_plasmid::@::cell'
p5223
aS'library::@::room'
p5224
aS'study::@::room'
p5225
aS'guest::@::court'
p5226
aS'school::@::house'
p5227
aS'library::@::structure'
p5228
aS'lion::@::cat'
p5229
aS'figure::@::cat'
p5230
aS'sympathy::@::fear'
p5231
aS'lioness::@::flash'
p5232
aS'men::@::mushroom'
p5233
aS'being::@::flower'
p5234
aS'men::@::magic'
p5235
aS'lion::@::creature'
p5236
aS'series_of_place::@::fate'
p5237
aS'nation::@::judgment'
p5238
aS'detail::@::private_reading'
p5239
aS'lion::@::mane'
p5240
aS'spectre_of_tyranny::@::feature'
p5241
aS'second::@::force'
p5242
aS'breff::blow_like::@'
p5243
aS'movement::@::hand'
p5244
aS'character::@::power'
p5245
aS'@::blow_like^-1::breff'
p5246
aS'spectre::@::feature'
p5247
aS'lizard::@::eye'
p5248
aS'life::@::parent'
p5249
aS'creature::@::noise'
p5250
aS'wing::@::snip'
p5251
aS'horizon::@::range'
p5252
aS'door::@::infant'
p5253
aS'window::@::shroud'
p5254
aS'book::@::spring'
p5255
aS'sky::@::row'
p5256
aS'oven::@::food'
p5257
aS'shell::@::bridge'
p5258
aS'pigeon::@::foot'
p5259
aS'rabbit::@::dog'
p5260
aS'life::@::flea'
p5261
aS'battle::@::employee'
p5262
aS'deer::@::hound'
p5263
aS'life::@::mamma'
p5264
aS'life::@::robinson'
p5265
aS'costume::@::people'
p5266
aS'mouse::@::cat'
p5267
aS'wife::@::owner'
p5268
aS'rabbit::@::lion'
p5269
aS'rabbit::@::mouth'
p5270
aS'rabbit::@::tail'
p5271
aS'pelican::@::beak_of_one'
p5272
aS'sheep::@::goat'
p5273
aS'family::@::family'
p5274
aS'waste::@::waste'
p5275
aS'tie::@::collar'
p5276
aS'collation::@::rank'
p5277
aS'shirt::@::garment'
p5278
aS'shirt::@::pant'
p5279
aS'everyone::@::bed'
p5280
aS'pantaloon::@::boot'
p5281
aS'leg::@::boot'
p5282
aS'thumb::@::belt'
p5283
aS'spear::@::point'
p5284
aS'oswald::@::thanks'
p5285
aS'government::@::stipulation'
p5286
aS'clements::@::something'
p5287
aS'commission::@::deal'
p5288
aS'commission::@::lack'
p5289
aS'path::@::ayla'
p5290
aS'monkey::@::elia'
p5291
aS'fanny::@::grave'
p5292
aS'week::@::man'
p5293
aS'distance::@::canal'
p5294
aS'root::@::depth'
p5295
aS'use::@::writer'
p5296
aS'sake::@::english'
p5297
aS'sword::@::edge'
p5298
aS'individual_granule::@::periphery'
p5299
aS'selection::@::soft'
p5300
aS'granule::@::periphery'
p5301
aS'sword::@::end'
p5302
aS'boy::@::gate'
p5303
aS'tuesday::@::train'
p5304
aS'parent::@::age'
p5305
aS'paddle::@::foam'
p5306
aS'bark::@::cloth'
p5307
aS'individual::@::form'
p5308
aS'sword::@::knife'
p5309
aS'truck::@::front'
p5310
aS'car::@::front'
p5311
aS'father::@::front'
p5312
aS'jeep::@::front'
p5313
aS'carriage::@::front'
p5314
aS'voice::@::ear'
p5315
aS'truck::@::street'
p5316
aS'wagon::@::front'
p5317
aS'people::@::front'
p5318
aS'driver::@::front'
p5319
aS'man::@::front'
p5320
aS'taxi::@::front'
p5321
aS'blood::@::vein'
p5322
aS'other_thing::@::creature'
p5323
aS'car::@::row'
p5324
aS'mountainside::@::tremendous_swath'
p5325
aS'eye::@::direction'
p5326
aS'action::@::poetry'
p5327
aS'man::@::way'
p5328
aS'@::look_like^-1::such_word'
p5329
aS'people::@::ghostly'
p5330
aS'@::guide_by::deposit'
p5331
aS'deposit::guide_by^-1::@'
p5332
aS'costume::gap_at^-1::@'
p5333
aS'turtle::@::food'
p5334
aS'negro::@::food'
p5335
aS'men::@::food'
p5336
aS'lion::@::food'
p5337
aS'manifestation::@::difficulty'
p5338
aS'turtle::@::head'
p5339
aS'fox::@::declaration'
p5340
aS'van::@::front'
p5341
aS'time::@::front'
p5342
aS'car::@::front_of_house'
p5343
aS'possession::@::appetite'
p5344
aS'report::@::interest'
p5345
aS'justice::@::sword'
p5346
aS'financial_embarrassment::@::zeal'
p5347
aS'train::@::hurry'
p5348
aS'day::@::appetite'
p5349
aS'conversation_about_food::@::appetite'
p5350
aS'steel::@::steel'
p5351
aS'hour::@::appetite'
p5352
aS'week::@::appetite'
p5353
aS'intermixture::@::appetite'
p5354
aS'black_hawk::@::bill'
p5355
aS'raw_air::@::resolute_piety'
p5356
aS'umslopogaas::@::axe_outside_window'
p5357
aS'appetite_of_investor::@::rage_of_speculation'
p5358
aS'sample::@::appetite'
p5359
aS'knife::sharpen_by::@'
p5360
aS'bush::@::dust'
p5361
aS'closet::@::loyalty'
p5362
aS'bed::@::lung'
p5363
aS'occasion::@::note'
p5364
aS'blast::@::voice_of_fairy'
p5365
aS'matter_in_question::@::government'
p5366
aS'air::@::solitary_hermit'
p5367
aS'sign::@::morning'
p5368
aS'roof::@::noise'
p5369
aS'earth::@::heaven'
p5370
aS'part::@::lordship'
p5371
aS'agreed_statement::@::cause'
p5372
aS'point::@::bigge'
p5373
aS'evidence::@::cause'
p5374
aS'road::@::hoof'
p5375
aS'stair::@::voice'
p5376
aS'demurrer::@::case'
p5377
aS'gravel_path::@::sound_of_footstep'
p5378
aS'hill::@::shout'
p5379
aS'lead::@::night_after_night'
p5380
aS'gate_of_correctionhouse::@::attack'
p5381
aS'dry_ground::@::sound'
p5382
aS'bed::@::wood'
p5383
aS'effect::@::reverse'
p5384
aS'attainder::@::blood'
p5385
aS'spontaneity::@::pressure'
p5386
aS'theology::@::variable_tint'
p5387
aS'theology::@::tint'
p5388
aS'box::@::top'
p5389
aS'hook::@::kettle'
p5390
aS'many_file::@::shelf'
p5391
aS'rock::@::surface'
p5392
aS'water::@::top'
p5393
aS'image::@::top'
p5394
aS'object::@::top'
p5395
aS'pile::@::desk'
p5396
aS'statue::@::former'
p5397
aS'castle::@::prince'
p5398
aS'time::@::people'
p5399
aS'palace::@::king'
p5400
aS'variance::@::person'
p5401
aS'may::@::quebec'
p5402
aS'house::@::father'
p5403
aS'century::@::party'
p5404
aS'home::@::capital'
p5405
aS'club::@::clark'
p5406
aS'hour::@::chime'
p5407
aS'house::@::student'
p5408
aS'house::@::man'
p5409
aS'cathedral::@::mosque'
p5410
aS'@::hold_as^-1::court'
p5411
aS'@::contribute_as^-1::parish'
p5412
aS'value::@::experiment'
p5413
aS'crow::@::head'
p5414
aS'castle::@::country'
p5415
aS'dagger::@::arm'
p5416
aS'man::@::back'
p5417
aS'woman::@::back'
p5418
aS'number::@::henry_viii'
p5419
aS'finger::@::finger'
p5420
aS'friend::@::truth'
p5421
aS'goldsmith::@::truth'
p5422
aS'eye::@::light'
p5423
aS'mind::@::identity'
p5424
aS'deer::@::animal'
p5425
aS'streak::@::cloud'
p5426
aS'dress::@::apron'
p5427
aS'cloth::@::top'
p5428
aS'foot::@::end'
p5429
aS'eagle::@::bird'
p5430
aS'disorder::@::inhabitant'
p5431
aS'silence::@::bystander'
p5432
aS'elm::@::leaf'
p5433
aS'kingdom::@::kind'
p5434
aS'woman::@::victim'
p5435
aS'enthymeme::@::syllogism'
p5436
aS'garlic::@::clove'
p5437
aS'potato::@::place'
p5438
aS'fresh_ginger::@::teaspoon'
p5439
aS'leaf::@::garlic_clove'
p5440
aS'boy::@::custom'
p5441
aS'potato::@::tablespoon'
p5442
aS'oil::@::garlic_clove'
p5443
aS'life::@::paper'
p5444
aS'goat::@::sheep'
p5445
aS'protein::@::protein'
p5446
aS'gene::@::gene'
p5447
aS'process::@::process'
p5448
aS'white::@::white'
p5449
aS'church::@::king'
p5450
aS'rest::@::men'
p5451
aS'girl::@::boy'
p5452
aS'work::@::work'
p5453
aS'question::@::question'
p5454
aS'soldier::@::officer'
p5455
aS'rank_of_assembly::@::collation'
p5456
aS'hat::@::bonnet'
p5457
aS'wind::@::innumerable_bat'
p5458
aS'politics::@::travel'
p5459
aS'fiction::@::fact'
p5460
aS'abbreviation::@::form'
p5461
aS'wind::@::bat'
p5462
aS'hawk::@::dove'
p5463
aS'parvum_from_supply::@::people'
p5464
aS'spell::@::cascade'
p5465
aS'interest::@::man'
p5466
aS'parvum::@::people'
p5467
aS'hawk::@::head'
p5468
aS'horse::@::coyote'
p5469
aS'horse::@::dog'
p5470
aS'boy::@::dog'
p5471
aS'day::@::rattlesnake'
p5472
aS'locke::@::ground'
p5473
aS'picture::@::bit'
p5474
aS'man::@::rat'
p5475
aS'man::@::dog'
p5476
aS'glass::@::willie'
p5477
aS'mind::@::element'
p5478
aS'ox::@::tongue'
p5479
aS'people::@::snake'
p5480
aS'man::@::toe'
p5481
aS'missile::@::eye'
p5482
aS'object::@::eye'
p5483
aS'diver::@::moray'
p5484
aS'animal::@::leg'
p5485
aS'horse::@::hind_leg'
p5486
aS'stump::@::sidewalk'
p5487
aS'power::@::ear'
p5488
aS'saddle_horse::@::hind_leg'
p5489
aS'dragon::@::tail'
p5490
aS'fat_man::@::deal_table'
p5491
aS'number::result_from::@'
p5492
aS'cart::@::cortege'
p5493
aS'simon::@::dog'
p5494
aS'body::@::head'
p5495
aS'poltroon::@::presence'
p5496
aS'circumstance::@::man'
p5497
aS'horse::@::mule'
p5498
aS'bishop::@::men'
p5499
aS'institution::@::necessity'
p5500
aS'scale::@::scale'
p5501
aS'gate::@::gate'
p5502
aS'function::@::function'
p5503
aS'student::@::student'
p5504
aS'method::@::technique'
p5505
aS'value::@::value'
p5506
aS'others::@::people'
p5507
aS'transistor::@::transistor'
p5508
aS'unit::@::unit'
p5509
aS'anesthesia::@::anesthesia'
p5510
aS'hoyos::@::lopez'
p5511
aS'welding::@::welding'
p5512
aS'child::@::child'
p5513
aS'policy::@::policy'
p5514
aS'incision::@::incision'
p5515
aS'drug::@::drug'
p5516
aS'horse::@::nose'
p5517
aS'tree::@::head'
p5518
aS'patient::@::stoma'
p5519
aS'enormous_mass::@::mile'
p5520
aS'girl::@::head'
p5521
aS'mass::@::mile'
p5522
aS'mass_of_rock::@::mile'
p5523
aS'apron::@::hip'
p5524
aS'child::@::head'
p5525
aS'feature::follow::@'
p5526
aS'tree::@::wall'
p5527
aS'horse::@::sheep'
p5528
aS'jacket::@::coat'
p5529
aS'new::@::scudder'
p5530
aS'original::@::edition'
p5531
aS'end::@::plate'
p5532
aS'knife::@::head'
p5533
aS'scissors::@::pedicle'
p5534
aS'gallery::@::periphery'
p5535
aS'hair::@::year'
p5536
aS'exception::@::head'
p5537
aS'knife::@::love'
p5538
aS'craft::@::air'
p5539
aS'touch::@::edith'
p5540
aS'conversion::@::account_of_experience'
p5541
aS'men::@::death'
p5542
aS'doctor::@::honor'
p5543
aS'native::@::clothes'
p5544
aS'lion::@::claw'
p5545
aS'lion::@::paw'
p5546
aS'missile::@::engine'
p5547
aS'boat::@::oar'
p5548
aS'urine::@::action'
p5549
aS'aircraft::@::engine'
p5550
aS'wheel::@::engine'
p5551
aS'content::@::movement'
p5552
aS'vehicle::@::motor'
p5553
aS'ship::@::steam'
p5554
aS'car::@::electricity'
p5555
aS'mucus::@::cilium'
p5556
aS'boat::@::oarsman'
p5557
aS'boat::@::engine'
p5558
aS'vessel::@::yard'
p5559
aS'owl::@::wing'
p5560
aS'@::carry_during^-1::movement'
p5561
aS'scent::@::air'
p5562
aS'moral_feeling::@::wave'
p5563
aS'voice::@::remainder'
p5564
aS'joke::cut_with::@'
p5565
aS'hulk::@::frail_boat'
p5566
aS'epic_technique::@::sea'
p5567
aS'strange_whale::@::outer_cape'
p5568
aS'maggot::@::surface_of_water'
p5569
aS'ship_under_influence::@::rocky_shore'
p5570
aS'time::@::wreck'
p5571
aS'instant::@::western_coast'
p5572
aS'@::stifle^-1::macwhirr'
p5573
aS'river::@::way'
p5574
aS'party::@::disintegrating_floe'
p5575
aS'feeling::@::wave'
p5576
aS'sweat::@::body'
p5577
aS'growth::@::shrub'
p5578
aS'man::@::immensity'
p5579
aS'pigeon::@::head'
p5580
aS'woman::@::top'
p5581
aS'flood::@::existence'
p5582
aS'pistol::@::grip'
p5583
aS'hand::@::grasp'
p5584
aS'pain::@::eye'
p5585
aS'potato::@::food'
p5586
aS'potato::@::soup'
p5587
aS'observation_about_poet::@::policy'
p5588
aS'cause::@::appearance'
p5589
aS'potato::@::potato'
p5590
aS'belief::@::testimony'
p5591
aS'observation::@::policy'
p5592
aS'moisture::@::sun'
p5593
aS'plaintiff::@::clerk'
p5594
aS'king::@::louse'
p5595
aS'object::@::currency'
p5596
aS'soul::@::state'
p5597
aS'potato::@::cup'
p5598
aS'bread::@::woman'
p5599
aS'sickle::@::broken'
p5600
aS'gentleman::@::agriculturist'
p5601
aS'desert::@::flight'
p5602
aS'girl::@::gunliffe'
p5603
aS'radio::@::night'
p5604
aS'network::@::computer'
p5605
aS'health::@::supervision'
p5606
aS'country::@::curse'
p5607
aS'white_robe::@::arch'
p5608
aS'opinion::@::boswell'
p5609
aS'robe::@::arch'
p5610
aS'men::@::operation'
p5611
aS'success::@::guidance'
p5612
aS'cup::@::microscope'
p5613
aS'europe::@::fog'
p5614
aS'visage::@::hair'
p5615
aS'truth::@::aspect'
p5616
aS'note::@::pillow'
p5617
aS'production::@::aspect'
p5618
aS'leg::@::hoop'
p5619
aS'robe::@::silver'
p5620
aS'step::@::blood'
p5621
aS'robin::@::foot'
p5622
aS'faith::@::time'
p5623
aS'question::@::vienna'
p5624
aS'shirt::@::pocket'
p5625
aS'boredom::@::delinquent'
p5626
aS'egypt::@::life'
p5627
aS'job::@::people'
p5628
aS'shirt::@::sock'
p5629
aS'men::@::chin'
p5630
aS'system::@::deal'
p5631
aS'mustache::@::effort'
p5632
aS'physician::@::head'
p5633
aS'mustache::@::beard'
p5634
aS'head::@::tuft'
p5635
aS'barber::@::customer'
p5636
aS'warrior::@::head'
p5637
aS'sparrow::@::eye'
p5638
aS'projectile::@::intermission'
p5639
aS'child::@::awakening'
p5640
aS'flag::@::e'
p5641
aS'way::@::wit'
p5642
aS'wagon::@::bluff'
p5643
aS'blotch::@::chauffeur'
p5644
aS'nothing::@::great_monastery'
p5645
aS'negligence::@::defendant'
p5646
aS'weak_arm::@::host'
p5647
aS'huitzilopochtli::@::men_with_horse'
p5648
aS'example::@::mass'
p5649
aS'thing::@::man'
p5650
aS'method::@::newspaper'
p5651
aS'numerous_case::@::court'
p5652
aS'holder::@::estate'
p5653
aS'market_position::@::attack'
p5654
aS'fact::@::fergusson'
p5655
aS'crime::@::murderer'
p5656
aS'bravery_of_regular::@::invisible_enemy'
p5657
aS'several_drug::@::hsv_infection'
p5658
aS'bravery_of_regular::@::enemy'
p5659
aS'partner::@::separate_estate'
p5660
aS'fine_art::@::virtue_of_charge'
p5661
aS'endearment::@::virtue'
p5662
aS'spear::@::weapon'
p5663
aS'word::@::throat'
p5664
aS'breath::@::lung'
p5665
aS'universe::@::part'
p5666
aS'varmint::@::thicket'
p5667
aS'men::@::pain'
p5668
aS'part::@::chain'
p5669
aS'key::@::lock'
p5670
aS'purse::@::seat'
p5671
aS'cliff::@::echo'
p5672
aS'everything::@::silver_mail'
p5673
aS'creation::@::pang'
p5674
aS'devine::@::anguish'
p5675
aS'glass::@::hand'
p5676
aS'ukelele::@::jet'
p5677
aS'fire::@::sepulchre'
p5678
aS'word::@::lip'
p5679
aS'sword::@::steel'
p5680
aS'sense::@::short'
p5681
aS'aristocratic_institution::@::bit'
p5682
aS'institution::@::bit'
p5683
aS'gathering::@::outbreak'
p5684
aS'whole::@::fruit'
p5685
aS'vegetable::@::purchasing'
p5686
aS'vulture::@::dove'
p5687
aS'minute::@::angel_inn'
p5688
aS'minute::@::inn'
p5689
a.