(lp1
S'@::be_without::seam'
p2
aS'seam::be_without^-1::@'
p3
aS'@::be_of::cloth'
p4
aS'cloth::be_of^-1::@'
p5
aS'lord_god::make::@'
p6
aS'@::make^-1::lord_god'
p7
aS'collar::have^-1::@'
p8
aS'@::have::collar'
p9
aS'@::apply_to::surface'
p10
aS'surface::apply_to^-1::@'
p11
aS'@::consist_of^-1::wall'
p12
aS'wall::consist_of::@'
p13
aS'@::button_to::chin'
p14
aS'chin::button_to^-1::@'
p15
aS'dress::consist_of::@'
p16
aS'@::consist_of^-1::dress'
p17
aS'gentleman::wear::@'
p18
aS'@::wear^-1::gentleman'
p19
aS'surface::give::@'
p20
aS'@::give^-1::surface'
p21
aS'cup::dry::@'
p22
aS'@::dry^-1::cup'
p23
aS'bog::grow_in^-1::@'
p24
aS'@::grow_in::bog'
p25
aS'cup::@::juice'
p26
aS'@::toss_on::wave'
p27
aS'wave::toss_on^-1::@'
p28
aS'abundance::find_in^-1::@'
p29
aS'@::find_in::abundance'
p30
aS'cup::@::cocktail'
p31
aS'ounce::@::juice'
p32
aS'cup::@::juice_cocktail'
p33
aS'@::contain::benzoic_acid'
p34
aS'benzoic_acid::contain^-1::@'
p35
aS'@::occur_in^-1::benzoic_acid'
p36
aS'benzoic_acid::occur_in::@'
p37
aS'low_kind::be_of^-1::@'
p38
aS'@::be_of::low_kind'
p39
aS'@::contain::acid'
p40
aS'acid::contain^-1::@'
p41
aS'rotor::have^-1::@'
p42
aS'@::have::rotor'
p43
aS'field::land_in^-1::@'
p44
aS'@::land_in::field'
p45
aS'@::make::pas'
p46
aS'pas::make^-1::@'
p47
aS'lawn::land_on^-1::@'
p48
aS'@::land_on::lawn'
p49
aS'fire::hit_by^-1::@'
p50
aS'@::hit_by::fire'
p51
aS'pilot::fly::@'
p52
aS'@::fly^-1::pilot'
p53
aS'air::rise_into^-1::@'
p54
aS'@::rise_into::air'
p55
aS'@::begin::descent'
p56
aS'descent::begin^-1::@'
p57
aS'@::gain::altitude'
p58
aS'altitude::gain^-1::@'
p59
aS'@::land_on::roof'
p60
aS'roof::land_on^-1::@'
p61
aS'store::aggravate^-1::@'
p62
aS'@::aggravate::store'
p63
aS'needle::have^-1::@'
p64
aS'@::have::needle'
p65
aS'@::curl::pretty_wreath'
p66
aS'pretty_wreath::curl^-1::@'
p67
aS'@::curl::wreath'
p68
aS'wreath::curl^-1::@'
p69
aS'@::smell_of^-1::book'
p70
aS'book::smell_of::@'
p71
aS'mountain::cover_with::@'
p72
aS'@::cover_with^-1::mountain'
p73
aS'@::cover_with^-1::hill'
p74
aS'hill::cover_with::@'
p75
aS'@::throw::lofty_flame'
p76
aS'lofty_flame::throw^-1::@'
p77
aS'@::consist_of^-1::forest'
p78
aS'forest::consist_of::@'
p79
aS'white_star::shine_on::@'
p80
aS'@::shine_on^-1::white_star'
p81
aS'food::serve^-1::@'
p82
aS'@::serve::food'
p83
aS'hotel::have::@'
p84
aS'@::have^-1::hotel'
p85
aS'@::serve::meal'
p86
aS'meal::serve^-1::@'
p87
aS'meal::take_in::@'
p88
aS'@::take_in^-1::meal'
p89
aS'cuisine::serve^-1::@'
p90
aS'@::serve::cuisine'
p91
aS'menu::have^-1::@'
p92
aS'@::have::menu'
p93
aS'dish::serve^-1::@'
p94
aS'@::serve::dish'
p95
aS'@::offer::menu'
p96
aS'menu::offer^-1::@'
p97
aS'lunch::serve^-1::@'
p98
aS'@::serve::lunch'
p99
aS'breakfast::serve^-1::@'
p100
aS'@::serve::breakfast'
p101
aS'@::sling_over::shoulder'
p102
aS'shoulder::sling_over^-1::@'
p103
aS'@::arm_with^-1::men'
p104
aS'men::arm_with::@'
p105
aS'men::carry::@'
p106
aS'@::carry^-1::men'
p107
aS'soldier::raise::@'
p108
aS'@::raise^-1::soldier'
p109
aS'@::carry^-1::soldier'
p110
aS'soldier::carry::@'
p111
aS'men::fire::@'
p112
aS'@::fire^-1::men'
p113
aS'shoulder::be_at^-1::@'
p114
aS'@::be_at::shoulder'
p115
aS'infantry::arm_with::@'
p116
aS'@::arm_with^-1::infantry'
p117
aS'@::sling_across::back'
p118
aS'back::sling_across^-1::@'
p119
aS'soldier::arm_with::@'
p120
aS'@::arm_with^-1::soldier'
p121
aS'@::wear^-1::girl'
p122
aS'girl::wear::@'
p123
aS'boy::wear::@'
p124
aS'@::wear^-1::boy'
p125
aS'@::knit^-1::woman'
p126
aS'woman::knit::@'
p127
aS'@::knit^-1::mother'
p128
aS'mother::knit::@'
p129
aS'cheap_basement::find^-1::@'
p130
aS'basement::find^-1::@'
p131
aS'@::find::basement'
p132
aS'@::connote::style'
p133
aS'@::find::cheap_basement'
p134
aS'style::connote^-1::@'
p135
aS'shoulder::drape_over^-1::@'
p136
aS'@::drape_over::shoulder'
p137
aS'hand::be_under::@'
p138
aS'@::be_under^-1::hand'
p139
aS'cable::knit::@'
p140
aS'@::knit^-1::cable'
p141
aS'@::watch^-1::child'
p142
aS'child::watch::@'
p143
aS'@::watch^-1::people'
p144
aS'people::watch::@'
p145
aS'film::show_on::@'
p146
aS'@::show_on^-1::film'
p147
aS'@::look_at^-1::people'
p148
aS'people::look_at::@'
p149
aS'family::watch::@'
p150
aS'@::watch^-1::family'
p151
aS'@::watch_on^-1::million'
p152
aS'million::watch_on::@'
p153
aS'@::watch_on^-1::people'
p154
aS'people::watch_on::@'
p155
aS'@::bring_into::home'
p156
aS'home::bring_into^-1::@'
p157
aS'@::go_on^-1::president'
p158
aS'president::go_on::@'
p159
aS'@::watch_on^-1::child'
p160
aS'child::watch_on::@'
p161
aS'@::give::sound'
p162
aS'sound::give^-1::@'
p163
aS'@::give::uncertain_sound'
p164
aS'uncertain_sound::give^-1::@'
p165
aS'angel::blow::@'
p166
aS'@::blow^-1::angel'
p167
aS'@::sound^-1::angel'
p168
aS'angel::sound::@'
p169
aS'@::sound::charge'
p170
aS'charge::sound^-1::@'
p171
aS'@::blow^-1::priest'
p172
aS'priest::blow::@'
p173
aS'@::sound_on::side'
p174
aS'side::sound_on^-1::@'
p175
aS'other_side::sound_on^-1::@'
p176
aS'@::sound_on::other_side'
p177
aS'@::ring_like^-1::voice'
p178
aS'voice::ring_like::@'
p179
aS'gabriel::blow::@'
p180
aS'@::blow^-1::gabriel'
p181
aS'columbus::raid^-1::@'
p182
aS'@::raid::columbus'
p183
aS'@::have^-1::cicero'
p184
aS'cicero::have::@'
p185
aS'border::cross^-1::@'
p186
aS'@::cross::border'
p187
aS'garden::have^-1::@'
p188
aS'@::have::garden'
p189
aS'@::raid::town'
p190
aS'town::raid^-1::@'
p191
aS'@::have::bedroom'
p192
aS'bedroom::have^-1::@'
p193
aS'roman::build::@'
p194
aS'@::build^-1::roman'
p195
aS'@::present_with^-1::emperor'
p196
aS'emperor::present_with::@'
p197
aS'@::defeat^-1::obregon'
p198
aS'obregon::defeat::@'
p199
aS'@::attack::columbus'
p200
aS'columbus::attack^-1::@'
p201
aS'@::shake::bloom'
p202
aS'bloom::shake^-1::@'
p203
aS'long_bloom::shake^-1::@'
p204
aS'@::shake::long_bloom'
p205
aS'bloom_on_tree::shake^-1::@'
p206
aS'@::shake::bloom_on_tree'
p207
aS'@::be_in::bloom'
p208
aS'bloom::be_in^-1::@'
p209
aS'@::decurrens::willd'
p210
aS'willd::decurrens^-1::@'
p211
aS'@::strike_from::blueness'
p212
aS'blueness::strike_from^-1::@'
p213
aS'blueness_of_foliage::strike_from^-1::@'
p214
aS'@::strike_from::blueness_of_foliage'
p215
aS'embowering::rise::@'
p216
aS'@::rise^-1::embowering'
p217
aS'@::shade_with^-1::terrace'
p218
aS'terrace::shade_with::@'
p219
aS'hollow_thorn::bear^-1::@'
p220
aS'@::bear::hollow_thorn'
p221
aS'@::build::dam'
p222
aS'dam::build^-1::@'
p223
aS'dam::make^-1::@'
p224
aS'@::make::dam'
p225
aS'@::cut::tree'
p226
aS'tree::cut^-1::@'
p227
aS'@::construct::dam'
p228
aS'dam::construct^-1::@'
p229
aS'lodge::build^-1::@'
p230
aS'@::build::lodge'
p231
aS'men::work_like::@'
p232
aS'@::work_like^-1::men'
p233
aS'@::slap::tail'
p234
aS'tail::slap^-1::@'
p235
aS'@::go_at^-1::montgomery'
p236
aS'montgomery::go_at::@'
p237
aS'trap::catch_in^-1::@'
p238
aS'@::catch_in::trap'
p239
aS'tail::use^-1::@'
p240
aS'@::use::tail'
p241
aS'@::drop::bomb'
p242
aS'bomb::drop^-1::@'
p243
aS'@::drop::ton'
p244
aS'ton::drop^-1::@'
p245
aS'@::drop::ton_of_bomb'
p246
aS'ton_of_bomb::drop^-1::@'
p247
aS'target::attack^-1::@'
p248
aS'@::attack::target'
p249
aS'load::drop^-1::@'
p250
aS'@::drop::load'
p251
aS'@::attack::airfield'
p252
aS'airfield::attack^-1::@'
p253
aS'@::make::raid'
p254
aS'raid::make^-1::@'
p255
aS'@::fly::sortie'
p256
aS'sortie::fly^-1::@'
p257
aS'@::carry::bomb'
p258
aS'bomb::carry^-1::@'
p259
aS'@::reach::target'
p260
aS'target::reach^-1::@'
p261
aS'@::be_in::ruin'
p262
aS'ruin::be_in^-1::@'
p263
aS'pleasant_seat::hath^-1::@'
p264
aS'@::hath::pleasant_seat'
p265
aS'@::hath::seat'
p266
aS'seat::hath^-1::@'
p267
aS'@::build_in::century'
p268
aS'century::build_in^-1::@'
p269
aS'@::stand_on::rock'
p270
aS'rock::stand_on^-1::@'
p271
aS'@::raze_to::ground'
p272
aS'ground::raze_to^-1::@'
p273
aS'hill::stand_on^-1::@'
p274
aS'@::stand_on::hill'
p275
aS'tower::have^-1::@'
p276
aS'@::have::tower'
p277
aS'@::topple_on::head'
p278
aS'head::topple_on^-1::@'
p279
aS'site::build_on^-1::@'
p280
aS'@::build_on::site'
p281
aS'job::be_as::@'
p282
aS'@::be_as^-1::job'
p283
aS'dish::put_in::@'
p284
aS'@::put_in^-1::dish'
p285
aS'@::use::water'
p286
aS'water::use^-1::@'
p287
aS'@::be_in^-1::dish'
p288
aS'dish::be_in::@'
p289
aS'@::have^-1::kitchen'
p290
aS'kitchen::have::@'
p291
aS'first_job::be_as::@'
p292
aS'@::be_as^-1::first_job'
p293
aS'@::use::gallon'
p294
aS'gallon::use^-1::@'
p295
aS'kitchen::equip_with::@'
p296
aS'@::equip_with^-1::kitchen'
p297
aS'appliance::include::@'
p298
aS'@::include^-1::appliance'
p299
aS'@::use::gallon_of_water'
p300
aS'gallon_of_water::use^-1::@'
p301
aS'@::with^-1::travel'
p302
aS'travel::with::@'
p303
aS'angel::saw^-1::@'
p304
aS'@::saw::angel'
p305
aS'@::own^-1::farmer'
p306
aS'farmer::own::@'
p307
aS'@::ride_on^-1::jesus'
p308
aS'jesus::ride_on::@'
p309
aS'@::own^-1::bill'
p310
aS'bill::own::@'
p311
aS'cart::pull^-1::@'
p312
aS'@::pull::cart'
p313
aS'angel_of_lord::saw^-1::@'
p314
aS'@::saw::angel_of_lord'
p315
aS'@::own^-1::pedro'
p316
aS'pedro::own::@'
p317
aS'@::carry::load'
p318
aS'load::carry^-1::@'
p319
aS'animal::use_as^-1::@'
p320
aS'@::use_as::animal'
p321
aS'lady::wear::@'
p322
aS'@::wear^-1::lady'
p323
aS'@::wear^-1::bride'
p324
aS'bride::wear::@'
p325
aS'mother::wear::@'
p326
aS'@::wear^-1::mother'
p327
aS'silk::be_of^-1::@'
p328
aS'@::be_of::silk'
p329
aS'material::be_of^-1::@'
p330
aS'@::be_of::material'
p331
aS'surgeon::@::wound'
p332
aS'shirt::consist_of^-1::@'
p333
aS'@::consist_of::shirt'
p334
aS'@::be_of::fashion'
p335
aS'fashion::be_of^-1::@'
p336
aS'@::wear^-1::wife'
p337
aS'wife::wear::@'
p338
aS'sleeve::have^-1::@'
p339
aS'wing::appear_on^-1::@'
p340
aS'@::appear_on::wing'
p341
aS'@::have::expanse'
p342
aS'expanse::have^-1::@'
p343
aS'wing::have^-1::@'
p344
aS'@::have::wing'
p345
aS'@::be_on::wing'
p346
aS'wing::be_on^-1::@'
p347
aS'@::fly_at::night'
p348
aS'night::fly_at^-1::@'
p349
aS'egg::deposit^-1::@'
p350
aS'@::deposit::egg'
p351
aS'@::be_in::flight'
p352
aS'flight::be_in^-1::@'
p353
aS'@::emerge_from::cocoon'
p354
aS'cocoon::emerge_from^-1::@'
p355
aS'@::consume_like^-1::beauty'
p356
aS'beauty::consume_like::@'
p357
aS'june::emerge_in^-1::@'
p358
aS'@::emerge_in::june'
p359
aS'@::ride^-1::warning'
p360
aS'warning::ride::@'
p361
aS'@::roll_in::direction'
p362
aS'direction::roll_in^-1::@'
p363
aS'dusty_condition::operate_under^-1::@'
p364
aS'@::operate_under::dusty_condition'
p365
aS'@::ship_from::factory'
p366
aS'factory::ship_from^-1::@'
p367
aS'@::operate_under::condition'
p368
aS'condition::operate_under^-1::@'
p369
aS'@::operate_in::moderate_climate'
p370
aS'moderate_climate::operate_in^-1::@'
p371
aS'climate::operate_in^-1::@'
p372
aS'@::operate_in::climate'
p373
aS'@::hold::satisfactory_tune'
p374
aS'satisfactory_tune::hold^-1::@'
p375
aS'engine_tune::hold^-1::@'
p376
aS'@::hold::engine_tune'
p377
aS'@::charge_on^-1::police'
p378
aS'police::charge_on::@'
p379
aS'mother::play::@'
p380
aS'@::play^-1::mother'
p381
aS'someone::play::@'
p382
aS'@::play^-1::someone'
p383
aS'@::stand_in::corner'
p384
aS'corner::stand_in^-1::@'
p385
aS'sister::play::@'
p386
aS'@::play^-1::sister'
p387
aS'someone::play_on::@'
p388
aS'@::play_on^-1::someone'
p389
aS'man::play::@'
p390
aS'@::play^-1::man'
p391
aS'@::play^-1::girl'
p392
aS'girl::play::@'
p393
aS'daughter::play::@'
p394
aS'@::play^-1::daughter'
p395
aS'somebody::play::@'
p396
aS'@::play^-1::somebody'
p397
aS'father::play::@'
p398
aS'@::play^-1::father'
p399
aS'hapless_prey::wait^-1::@'
p400
aS'@::wait::hapless_prey'
p401
aS'prey::wait^-1::@'
p402
aS'@::wait::prey'
p403
aS'stripe::change^-1::@'
p404
aS'@::change::stripe'
p405
aS'stripe::have^-1::@'
p406
aS'@::have::stripe'
p407
aS'men::fight_like::@'
p408
aS'@::fight_like^-1::men'
p409
aS'@::eat::man'
p410
aS'man::eat^-1::@'
p411
aS'pennant::win^-1::@'
p412
aS'@::win::pennant'
p413
aS'@::win::game'
p414
aS'game::win^-1::@'
p415
aS'@::catch^-1::drunk'
p416
aS'drunk::catch::@'
p417
aS'@::catch^-1::drunk_in_boot'
p418
aS'drunk_in_boot::catch::@'
p419
aS'@::try::art'
p420
aS'art::try^-1::@'
p421
aS'toast::toast_on::@'
p422
aS'@::toast_on^-1::toast'
p423
aS'@::have::resistance_of_ohm'
p424
aS'resistance_of_ohm::have^-1::@'
p425
aS'metonymy::eat_for::@'
p426
aS'@::eat_for^-1::metonymy'
p427
aS'@::use::watt'
p428
aS'watt::use^-1::@'
p429
aS'@::consider_than^-1::gray'
p430
aS'gray::consider_than::@'
p431
aS'husband::look_over::@'
p432
aS'@::look_over^-1::husband'
p433
aS'setting::have^-1::@'
p434
aS'@::have::setting'
p435
aS'@::draw::current'
p436
aS'current::draw^-1::@'
p437
aS'outlet::plug_into^-1::@'
p438
aS'@::plug_into::outlet'
p439
aS'anchor::lay_at^-1::@'
p440
aS'@::lay_at::anchor'
p441
aS'@::drop::anchor'
p442
aS'anchor::drop^-1::@'
p443
aS'anchor::be_at^-1::@'
p444
aS'@::be_at::anchor'
p445
aS'@::lie_at::anchor'
p446
aS'anchor::lie_at^-1::@'
p447
aS'@::spell_as^-1::trouble_decoding'
p448
aS'@::pick_upon::coast'
p449
aS'@::pick_upon::coast_of_wale'
p450
aS'decoding::spell_as::@'
p451
aS'trouble_decoding::spell_as::@'
p452
aS'coast::pick_upon^-1::@'
p453
aS'@::spell_as^-1::decoding'
p454
aS'coast_of_wale::pick_upon^-1::@'
p455
aS'note_of_schooner::@::mile'
p456
aS'fair_wind::proceed_with^-1::@'
p457
aS'@::proceed_with::fair_wind'
p458
aS'@::proceed_with::wind'
p459
aS'binary::@::decimal'
p460
aS'binary::@::code'
p461
aS'binary::@::decimal_code'
p462
aS'trellis::@::modulation'
p463
aS'binary::@::interchange_code'
p464
aS'binary::@::system'
p465
aS'extended_binary::@::code'
p466
aS'extended_binary::@::decimal_code'
p467
aS'binary::@::number'
p468
aS'extended_binary::@::interchange_code'
p469
aS'fish::include::@'
p470
aS'@::include^-1::fish'
p471
aS'shareholder_protection::@::a'
p472
aS'binary::@::representation'
p473
aS'scale::lose^-1::@'
p474
aS'@::lose::scale'
p475
aS'protection::@::a'
p476
aS'binary::@::decimal_system'
p477
aS'@::catch^-1::fisherman'
p478
aS'fisherman::catch::@'
p479
aS'stillness::move_in^-1::@'
p480
aS'@::move_in::stillness'
p481
aS'ground::be_upon^-1::@'
p482
aS'@::be_upon::ground'
p483
aS'water::rise_in::@'
p484
aS'@::rise_in^-1::water'
p485
aS'@::receive::flaw'
p486
aS'flaw::receive^-1::@'
p487
aS'@::introduce_into::imagination'
p488
aS'imagination::introduce_into^-1::@'
p489
aS'@::pour_into^-1::water'
p490
aS'water::pour_into::@'
p491
aS'@::incubate_in^-1::plate'
p492
aS'plate::incubate_in::@'
p493
aS'@::place_in^-1::sample'
p494
aS'sample::place_in::@'
p495
aS'@::have::neck'
p496
aS'neck::have^-1::@'
p497
aS'shape::include::@'
p498
aS'@::include^-1::shape'
p499
aS'plate::leave_on^-1::@'
p500
aS'@::leave_on::plate'
p501
aS'@::shred^-1::cup'
p502
aS'cup::shred::@'
p503
aS'@::leave_on::platter'
p504
aS'platter::leave_on^-1::@'
p505
aS'@::romaine^-1::cup'
p506
aS'cup::romaine::@'
p507
aS'salad_plate::leave_on^-1::@'
p508
aS'@::leave_on::salad_plate'
p509
aS'@::leave_into::piece'
p510
aS'piece::leave_into^-1::@'
p511
aS'@::leave_on::individual_plate'
p512
aS'individual_plate::leave_on^-1::@'
p513
aS'@::romaine^-1::head'
p514
aS'head::romaine::@'
p515
aS'@::leave_in::bowl'
p516
aS'bowl::leave_in^-1::@'
p517
aS'@::be_like::conversation'
p518
aS'conversation::be_like^-1::@'
p519
aS'@::represent::quality'
p520
aS'quality::represent^-1::@'
p521
aS'ubuntu_know::tux::@'
p522
aS'@::tux^-1::know'
p523
aS'know::tux::@'
p524
aS'linus::like::@'
p525
aS'@::like^-1::linus'
p526
aS'@::tux^-1::ubuntu_know'
p527
aS'@::use::wing'
p528
aS'wing::use^-1::@'
p529
aS'hornet::capture::@'
p530
aS'@::capture^-1::hornet'
p531
aS'@::get_into::port'
p532
aS'port::get_into^-1::@'
p533
aS'@::rmonds^-1::ha'
p534
aS'ha::rmonds::@'
p535
aS'detail_of_book::contain^-1::@'
p536
aS'@::contain::detail_of_book'
p537
aS'adeliae::pygoscelis^-1::@'
p538
aS'@::pygoscelis::adeliae'
p539
aS'husband::make^-1::@'
p540
aS'@::make::husband'
p541
aS'@::make::best_husband'
p542
aS'best_husband::make^-1::@'
p543
aS'maud_muller::@::meadow'
p544
aS'maud_muller::@::sweet_meadow'
p545
aS'maiden::@::hay'
p546
aS'muller::@::meadow'
p547
aS'barefoot_maiden::@::hay'
p548
aS'muller::@::sweet_meadow'
p549
aS'@::curse::fume'
p550
aS'fume::curse^-1::@'
p551
aS'@::curse::ungenial_fume'
p552
aS'ungenial_fume::curse^-1::@'
p553
aS'@::have^-1::tool'
p554
aS'tool::have::@'
p555
aS'lord_warwick::grow::@'
p556
aS'@::grow^-1::warwick'
p557
aS'@::grow^-1::lord_warwick'
p558
aS'warwick::grow::@'
p559
aS'@::wear^-1::priest'
p560
aS'priest::wear::@'
p561
aS'@::wear^-1::judge'
p562
aS'judge::wear::@'
p563
aS'@::wear^-1::monk'
p564
aS'monk::wear::@'
p565
aS'judgment::be_as::@'
p566
aS'@::be_as^-1::judgment'
p567
aS'king::wear::@'
p568
aS'@::wear^-1::king'
p569
aS'@::strip_of^-1::jonathan'
p570
aS'jonathan::strip_of::@'
p571
aS'@::wear^-1::member'
p572
aS'member::wear::@'
p573
aS'figure::clothe_in::@'
p574
aS'@::clothe_in^-1::figure'
p575
aS'@::be_in::set'
p576
aS'set::be_in^-1::@'
p577
aS'@::insert_with^-1::screw'
p578
aS'screw::insert_with::@'
p579
aS'@::wear^-1::repair'
p580
aS'repair::wear::@'
p581
aS'worker::wield::@'
p582
aS'@::wield^-1::worker'
p583
aS'@::require^-1::basic_type'
p584
aS'@::require^-1::type_of_screwdriver'
p585
aS'basic_type::require::@'
p586
aS'type_of_screwdriver::require::@'
p587
aS'screw::remove_with::@'
p588
aS'@::remove_with^-1::screw'
p589
aS'simple_kit::be_for^-1::@'
p590
aS'kit::be_for^-1::@'
p591
aS'tool_kit::be_for^-1::@'
p592
aS'@::be_for::simple_kit'
p593
aS'@::be_for::tool_kit'
p594
aS'@::be_for::kit'
p595
aS'result::show_in::@'
p596
aS'@::show_in^-1::result'
p597
aS'result::give_in::@'
p598
aS'@::give_in^-1::result'
p599
aS'result::present_in::@'
p600
aS'@::present_in^-1::result'
p601
aS'@::summarize_in^-1::result'
p602
aS'result::summarize_in::@'
p603
aS'@::give_in^-1::value'
p604
aS'value::give_in::@'
p605
aS'@::give_in^-1::data'
p606
aS'data::give_in::@'
p607
aS'@::present_in^-1::data'
p608
aS'data::present_in::@'
p609
aS'data::show_in::@'
p610
aS'@::show_in^-1::data'
p611
aS'@::show_in^-1::value'
p612
aS'value::show_in::@'
p613
aS'summary::give_in::@'
p614
aS'@::give_in^-1::summary'
p615
aS'front::park_in^-1::@'
p616
aS'@::park_in::front'
p617
aS'@::come_to::stop'
p618
aS'stop::come_to^-1::@'
p619
aS'front::pull_in^-1::@'
p620
aS'@::pull_in::front'
p621
aS'front::stop_in^-1::@'
p622
aS'@::stop_in::front'
p623
aS'@::come_to::halt'
p624
aS'halt::come_to^-1::@'
p625
aS'@::oblige_to^-1::despotism'
p626
aS'despotism::oblige_to::@'
p627
aS'@::drive^-1::father'
p628
aS'father::drive::@'
p629
aS'driveway::pull_into^-1::@'
p630
aS'@::pull_into::driveway'
p631
aS'wheel::have^-1::@'
p632
aS'@::have::wheel'
p633
aS'file::build^-1::@'
p634
aS'@::build::file'
p635
aS'@::eat::jelly'
p636
aS'jelly::eat^-1::@'
p637
aS'nest::build^-1::@'
p638
aS'@::build::nest'
p639
aS'men_of_experiment::be_like::@'
p640
aS'@::be_like^-1::men_of_experiment'
p641
aS'people::look_like::@'
p642
aS'@::look_like^-1::people'
p643
aS'@::be_like^-1::men'
p644
aS'men::be_like::@'
p645
aS'script::build^-1::@'
p646
aS'@::build::script'
p647
aS'@::live_in::colony'
p648
aS'colony::live_in^-1::@'
p649
aS'@::carry::egg'
p650
aS'egg::carry^-1::@'
p651
aS'@::make::nest'
p652
aS'nest::make^-1::@'
p653
aS'@::fall_from::tree'
p654
aS'tree::fall_from^-1::@'
p655
aS'adam::eat::@'
p656
aS'@::eat^-1::adam'
p657
aS'word::be_like::@'
p658
aS'@::be_like^-1::word'
p659
aS'@::eat^-1::eve'
p660
aS'eve::eat::@'
p661
aS'doctor::keep^-1::@'
p662
aS'@::keep::doctor'
p663
aS'john::eat::@'
p664
aS'@::eat^-1::john'
p665
aS'ground::fall_to^-1::@'
p666
aS'@::fall_to::ground'
p667
aS'barrel::spoil^-1::@'
p668
aS'@::spoil::barrel'
p669
aS'@::drop_about::head'
p670
aS'head::drop_about^-1::@'
p671
aS'@::grow_on::tree'
p672
aS'tree::grow_on^-1::@'
p673
aS'tree::@::fruit'
p674
aS'woman::@::child'
p675
aS'effort::@::fruit'
p676
aS'branch::@::fruit'
p677
aS'history::@::witness'
p678
aS'mr.::@::child'
p679
aS'spirit::@::witness'
p680
aS'work::@::fruit'
p681
aS'wife::@::child'
p682
aS'work::@::witness'
p683
aS'conscience::@::witness'
p684
aS'seed::@::fruit'
p685
aS'man::@::burden'
p686
aS'letter::@::date'
p687
aS'history::@::testimony'
p688
aS'wife::@::son'
p689
aS'god::@::witness'
p690
aS'woman::@::burden'
p691
aS'party::@::cost'
p692
aS'man::@::own_burden'
p693
aS'@::catch^-1::man'
p694
aS'man::catch::@'
p695
aS'@::look^-1::funny'
p696
aS'funny::look::@'
p697
aS'spine::have^-1::@'
p698
aS'@::have::spine'
p699
aS'@::have::scale'
p700
aS'scale::have^-1::@'
p701
aS'@::include^-1::specie'
p702
aS'specie::include::@'
p703
aS'barbel::have^-1::@'
p704
aS'@::have::barbel'
p705
aS'lake::stock_with::@'
p706
aS'@::stock_with^-1::lake'
p707
aS'pound::@::fillet'
p708
aS'@::say_to^-1::gurnet'
p709
aS'gurnet::say_to::@'
p710
aS'@::give::ghost_in_hurry'
p711
aS'immersion::be_after^-1::@'
p712
aS'@::be_after::immersion'
p713
aS'great_congener::drive^-1::@'
p714
aS'@::drive::great_congener'
p715
aS'congener::drive^-1::@'
p716
aS'@::drive::congener'
p717
aS'people::feel_about::@'
p718
aS'@::feel_about^-1::people'
p719
aS'@::avoid::light'
p720
aS'light::avoid^-1::@'
p721
aS'@::live_without::head'
p722
aS'head::live_without^-1::@'
p723
aS'immersion_in_extract::be_after^-1::@'
p724
aS'@::be_after::immersion_in_extract'
p725
aS'wall::walk_upon^-1::@'
p726
aS'@::walk_upon::wall'
p727
aS'floor::scurry_across^-1::@'
p728
aS'@::scurry_across::floor'
p729
aS'branch::ascend^-1::@'
p730
aS'@::ascend::branch'
p731
aS'distance::howl_in^-1::@'
p732
aS'@::howl_in::distance'
p733
aS'@::kill::sheep'
p734
aS'sheep::kill^-1::@'
p735
aS'night::howl_at^-1::@'
p736
aS'@::howl_at::night'
p737
aS'@::invade::backyard'
p738
aS'backyard::invade^-1::@'
p739
aS'@::tell^-1::man'
p740
aS'man::tell::@'
p741
aS'@::steal::fire'
p742
aS'fire::steal^-1::@'
p743
aS'wolf::tell::@'
p744
aS'@::tell^-1::wolf'
p745
aS'@::shoot^-1::hunter'
p746
aS'hunter::shoot::@'
p747
aS'moon::howl_at^-1::@'
p748
aS'@::howl_at::moon'
p749
aS'howl::tune_with^-1::@'
p750
aS'@::tune_with::howl'
p751
aS'@::eject::organ'
p752
aS'internal_organ::eject^-1::@'
p753
aS'@::eject::internal_organ'
p754
aS'organ_onto_floor::eject^-1::@'
p755
aS'organ::eject^-1::@'
p756
aS'@::eject::organ_onto_floor'
p757
aS'@::find_in::reef_crest'
p758
aS'reef_crest::find_in^-1::@'
p759
aS'@::find_in::immediate_crest'
p760
aS'immediate_crest::find_in^-1::@'
p761
aS'@::find_in::crest'
p762
aS'crest::find_in^-1::@'
p763
aS'defensive_mechanism::have^-1::@'
p764
aS'@::have::defensive_mechanism'
p765
aS'mechanism::have^-1::@'
p766
aS'@::have::mechanism'
p767
aS'long_chain::form^-1::@'
p768
aS'@::form::long_chain'
p769
aS'@::resemble^-1::fruit'
p770
aS'fruit::resemble::@'
p771
aS'group::live_in^-1::@'
p772
aS'@::live_in::group'
p773
aS'chest::beat^-1::@'
p774
aS'@::beat::chest'
p775
aS'shaggy_head::nod^-1::@'
p776
aS'@::nod::shaggy_head'
p777
aS'@::live_in::forest'
p778
aS'forest::live_in^-1::@'
p779
aS'chocolate::make_of^-1::@'
p780
aS'@::make_of::chocolate'
p781
aS'kitten::play_with::@'
p782
aS'@::play_with^-1::kitten'
p783
aS'bushman::descend_from::@'
p784
aS'@::descend_from^-1::bushman'
p785
aS'@::meet^-1::lugosi'
p786
aS'lugosi::meet::@'
p787
aS'@::ride_on^-1::men'
p788
aS'men::ride_on::@'
p789
aS'lemur::be_like^-1::@'
p790
aS'@::be_like::lemur'
p791
aS'@::felt^-1::black'
p792
aS'black::felt::@'
p793
aS'eye::pull_over^-1::@'
p794
aS'@::pull_over::eye'
p795
aS'soft::felt::@'
p796
aS'@::felt^-1::soft'
p797
aS'god::@::sin'
p798
aS'@::be_on::head'
p799
aS'head::be_on^-1::@'
p800
aS'men::remove::@'
p801
aS'@::remove^-1::men'
p802
aS'@::felt^-1::gray'
p803
aS'gray::felt::@'
p804
aS'brim::have^-1::@'
p805
aS'@::have::brim'
p806
aS'man::@::own_flesh'
p807
aS'people::wear::@'
p808
aS'@::wear^-1::people'
p809
aS'man::remove::@'
p810
aS'@::remove^-1::man'
p811
aS'warhead::carry^-1::@'
p812
aS'@::carry::warhead'
p813
aS'@::have::range_of_mile'
p814
aS'range_of_mile::have^-1::@'
p815
aS'@::hit::target'
p816
aS'target::hit^-1::@'
p817
aS'submarine::launch::@'
p818
aS'@::launch^-1::submarine'
p819
aS'@::have::warhead'
p820
aS'warhead::have^-1::@'
p821
aS'@::carry^-1::submarine'
p822
aS'submarine::carry::@'
p823
aS'@::have^-1::soviet'
p824
aS'soviet::have::@'
p825
aS'@::remove^-1::soviet'
p826
aS'soviet::remove::@'
p827
aS'@::fire^-1::iraq'
p828
aS'iraq::fire::@'
p829
aS'death::stand_as^-1::@'
p830
aS'@::stand_as::death'
p831
aS'road::line_with::@'
p832
aS'@::line_with^-1::road'
p833
aS'wand::straight^-1::@'
p834
aS'@::straight::wand'
p835
aS'approach_of_winter::turn_against^-1::@'
p836
aS'pale_gold::turn_into^-1::@'
p837
aS'@::turn_against::approach_of_winter'
p838
aS'@::turn_into::pale_gold'
p839
aS'@::turn_against::approach'
p840
aS'approach::turn_against^-1::@'
p841
aS'@::change_into^-1::sister'
p842
aS'sister::change_into::@'
p843
aS'poor_maria::sit_under::@'
p844
aS'@::sit_under^-1::poor_maria'
p845
aS'@::sit_under^-1::maria'
p846
aS'maria::sit_under::@'
p847
aS'@::move_among^-1::veil'
p848
aS'veil_of_mist::move_among::@'
p849
aS'year::@::publication'
p850
aS'year::@::beginning'
p851
aS'century::@::rise'
p852
aS'period::@::development'
p853
aS'century::@::development'
p854
aS'period::@::rise'
p855
aS'year::@::increase'
p856
aS'year::@::change'
p857
aS'period::@::emergence'
p858
aS'god::@::everything'
p859
aS'god::@::light'
p860
aS'century::@::beginning'
p861
aS'period::@::increase'
p862
aS'shahrazade::@::approach'
p863
aS'shahrazade::@::approach_of_morning'
p864
aS'year::@::establishment'
p865
aS'period::@::beginning'
p866
aS'century::@::change'
p867
aS'year::@::development'
p868
aS'period::@::change'
p869
aS'clinton::play::@'
p870
aS'@::play^-1::clinton'
p871
aS'hopeless_comment::wail^-1::@'
p872
aS'comment::wail^-1::@'
p873
aS'@::wail::hopeless_comment'
p874
aS'@::wail::comment'
p875
aS'@::wail::comment_of_blue'
p876
aS'comment_of_blue::wail^-1::@'
p877
aS'@::invent_by::sax'
p878
aS'sax::invent_by^-1::@'
p879
aS'@::invent^-1::sax'
p880
aS'sax::invent::@'
p881
aS'adolphe_sax::invent::@'
p882
aS'@::invent^-1::adolphe_sax'
p883
aS'@::invent_by::adolphe_sax'
p884
aS'adolphe_sax::invent_by^-1::@'
p885
aS'bill_clinton::play::@'
p886
aS'@::play^-1::bill_clinton'
p887
aS'@::freeze^-1::package'
p888
aS'package::freeze::@'
p889
aS'cup::chop::@'
p890
aS'@::chop^-1::cup'
p891
aS'@::eat_like^-1::leaf'
p892
aS'leaf::eat_like::@'
p893
aS'@::use_as^-1::leaf'
p894
aS'leaf::use_as::@'
p895
aS'@::cook^-1::cup'
p896
aS'cup::cook::@'
p897
aS'@::cook_like^-1::leaf'
p898
aS'leaf::cook_like::@'
p899
aS'@::wilt::minute'
p900
aS'minute::wilt^-1::@'
p901
aS'popeye::eat::@'
p902
aS'@::eat^-1::popeye'
p903
aS'@::chop^-1::package'
p904
aS'package::chop::@'
p905
aS'landscape::look_like::@'
p906
aS'@::look_like^-1::landscape'
p907
aS'cup::slice::@'
p908
aS'@::slice^-1::cup'
p909
aS'season::be_in^-1::@'
p910
aS'@::be_in::season'
p911
aS'flavor::lose^-1::@'
p912
aS'@::lose::flavor'
p913
aS'@::lose_in::bed'
p914
aS'bed::lose_in^-1::@'
p915
aS'nettle::grow_underneath^-1::@'
p916
aS'@::grow_underneath::nettle'
p917
aS'boteler::say_of::@'
p918
aS'@::say_of^-1::boteler'
p919
aS'heart_of_alcinous::delight^-1::@'
p920
aS'@::delight::heart_of_alcinous'
p921
aS'@::hang_like::fringe_below_rim'
p922
aS'fringe_below_rim::hang_like^-1::@'
p923
aS'heart::delight^-1::@'
p924
aS'@::delight::heart'
p925
aS'nation::lift::@'
p926
aS'@::lift^-1::nation'
p927
aS'garrison::put_to::@'
p928
aS'@::put_to^-1::garrison'
p929
aS'inhabitant::put_to::@'
p930
aS'@::put_to^-1::inhabitant'
p931
aS'@::leap_from::scabbard'
p932
aS'scabbard::leap_from^-1::@'
p933
aS'head::hang_over^-1::@'
p934
aS'@::hang_over::head'
p935
aS'sword::perish_by::@'
p936
aS'@::perish_by^-1::sword'
p937
aS'soul::pierce_through^-1::@'
p938
aS'@::pierce_through::soul'
p939
aS'@::perish_by::sword'
p940
aS'sword::perish_by^-1::@'
p941
aS'@::draw^-1::officer'
p942
aS'officer::draw::@'
p943
aS'soldier::draw::@'
p944
aS'@::draw^-1::soldier'
p945
aS'@::grow_aslant::brook'
p946
aS'brook::grow_aslant^-1::@'
p947
aS'@::hang_upon^-1::harp'
p948
aS'harp::hang_upon::@'
p949
aS'@::line_with^-1::bank'
p950
aS'bank::line_with::@'
p951
aS'@::be_like^-1::refrain'
p952
aS'refrain::be_like::@'
p953
aS'@::fringe_with^-1::bank'
p954
aS'bank::fringe_with::@'
p955
aS'@::creep_on::bough'
p956
aS'bough::creep_on^-1::@'
p957
aS'@::creep_on::bough_along_brook'
p958
aS'bough_along_brook::creep_on^-1::@'
p959
aS'leaf::be_in^-1::@'
p960
aS'@::be_in::leaf'
p961
aS'@::throw_among^-1::indian'
p962
aS'indian::throw_among::@'
p963
aS'@::found_in^-1::toad'
p964
aS'toad::found_in::@'
p965
aS'@::contain::ball'
p966
aS'ball::contain^-1::@'
p967
aS'@::apply_to::head'
p968
aS'head::apply_to^-1::@'
p969
aS'@::take^-1::porter'
p970
aS'porter::take::@'
p971
aS'woman::carry::@'
p972
aS'@::carry^-1::woman'
p973
aS'ball::draw_from::@'
p974
aS'@::draw_from^-1::ball'
p975
aS'marble::contain^-1::@'
p976
aS'@::contain::marble'
p977
aS'bean::be_from::@'
p978
aS'@::be_from^-1::bean'
p979
aS'@::consist_of^-1::fleet'
p980
aS'fleet::consist_of::@'
p981
aS'navy::have::@'
p982
aS'@::have^-1::navy'
p983
aS'japanese::lose::@'
p984
aS'@::lose^-1::japanese'
p985
aS'@::consist_of^-1::force'
p986
aS'force::consist_of::@'
p987
aS'@::include^-1::fleet'
p988
aS'fleet::include::@'
p989
aS'@::consist_of^-1::navy'
p990
aS'navy::consist_of::@'
p991
aS'@::sink^-1::airplane'
p992
aS'airplane::sink::@'
p993
aS'@::include^-1::force'
p994
aS'force::include::@'
p995
aS'@::sink^-1::plane'
p996
aS'plane::sink::@'
p997
aS'@::blow_in::harbor'
p998
aS'harbor::blow_in^-1::@'
p999
aS'@::pour^-1::angel'
p1000
aS'angel::pour::@'
p1001
aS'table::stand_on^-1::@'
p1002
aS'@::stand_on::table'
p1003
aS'rim::have^-1::@'
p1004
aS'@::have::rim'
p1005
aS'@::bring^-1::woman'
p1006
aS'woman::bring::@'
p1007
aS'@::be_like^-1::pot'
p1008
aS'pot::be_like::@'
p1009
aS'pot_in_house::be_like::@'
p1010
aS'@::be_like^-1::pot_in_house'
p1011
aS'food::serve_in::@'
p1012
aS'@::serve_in^-1::food'
p1013
aS'table::be_on^-1::@'
p1014
aS'@::be_on::table'
p1015
aS'@::offer_on::earth'
p1016
aS'earth::offer_on^-1::@'
p1017
aS'floret::cut_into^-1::@'
p1018
aS'@::cut_into::floret'
p1019
aS'crazy_man::long_for::@'
p1020
aS'@::long_for^-1::crazy_man'
p1021
aS'poor_man::long_for::@'
p1022
aS'@::long_for^-1::poor_man'
p1023
aS'@::break_into::floweret'
p1024
aS'floweret::break_into^-1::@'
p1025
aS'@::include^-1::vegetable'
p1026
aS'vegetable::include::@'
p1027
aS'@::answer::artichoke'
p1028
aS'artichoke::answer^-1::@'
p1029
aS'@::long_for^-1::man'
p1030
aS'man::long_for::@'
p1031
aS'leaf::remove^-1::@'
p1032
aS'@::remove::leaf'
p1033
aS'@::plant_with::hand'
p1034
aS'hand::plant_with^-1::@'
p1035
aS'wife::answer^-1::@'
p1036
aS'@::answer::wife'
p1037
aS'milk::give^-1::@'
p1038
aS'@::give::milk'
p1039
aS'@::produce::milk'
p1040
aS'milk::produce^-1::@'
p1041
aS'@::have::calf'
p1042
aS'calf::have^-1::@'
p1043
aS'@::eat::grass'
p1044
aS'grass::eat^-1::@'
p1045
aS'moon::jump_over^-1::@'
p1046
aS'@::jump_over::moon'
p1047
aS'milk::yield^-1::@'
p1048
aS'@::yield::milk'
p1049
aS'more_milk::give^-1::@'
p1050
aS'@::give::more_milk'
p1051
aS'milk::come_from::@'
p1052
aS'@::come_from^-1::milk'
p1053
aS'calf::give_to^-1::@'
p1054
aS'@::give_to::calf'
p1055
aS'@::chew::cud'
p1056
aS'cud::chew^-1::@'
p1057
aS'bosom::droop_into^-1::@'
p1058
aS'@::droop_into::bosom'
p1059
aS'@::droop_into::clear_bosom'
p1060
aS'clear_bosom::droop_into^-1::@'
p1061
aS'branch::droop^-1::@'
p1062
aS'@::droop::branch'
p1063
aS'@::be_under^-1::walk'
p1064
aS'walk::be_under::@'
p1065
aS'@::rob::slender_spray'
p1066
aS'slender_spray::rob^-1::@'
p1067
aS'@::rob::spray'
p1068
aS'spray::rob^-1::@'
p1069
aS'aerial_loom::weave_on^-1::@'
p1070
aS'@::weave_on::aerial_loom'
p1071
aS'literature::endure_as::@'
p1072
aS'@::endure_as^-1::other_literature'
p1073
aS'other_literature::endure_as::@'
p1074
aS'@::endure_as^-1::literature'
p1075
aS'@::rob::spray_with_flower'
p1076
aS'spray_with_flower::rob^-1::@'
p1077
aS'@::propel^-1::rocket'
p1078
aS'rocket::propel::@'
p1079
aS'@::throw^-1::soldier'
p1080
aS'soldier::throw::@'
p1081
aS'@::throw^-1::someone'
p1082
aS'someone::throw::@'
p1083
aS'@::dans^-1::soiree'
p1084
aS'soiree::dans::@'
p1085
aS'men::throw::@'
p1086
aS'@::throw^-1::men'
p1087
aS'german::throw::@'
p1088
aS'@::throw^-1::german'
p1089
aS'@::throw^-1::terrorist'
p1090
aS'terrorist::throw::@'
p1091
aS'front::explode_in^-1::@'
p1092
aS'@::explode_in::front'
p1093
aS'@::throw^-1::militant'
p1094
aS'militant::throw::@'
p1095
aS'la_soiree::dans::@'
p1096
aS'@::dans^-1::la_soiree'
p1097
aS'vendor::@::ware'
p1098
aS'@::fly_at^-1::brother'
p1099
aS'brother::fly_at::@'
p1100
aS'@::fly_at^-1::wright_brother'
p1101
aS'wright_brother::fly_at::@'
p1102
aS'brother::make_at::@'
p1103
aS'@::make_at^-1::brother'
p1104
aS'wright_brother::make_at::@'
p1105
aS'@::make_at^-1::wright_brother'
p1106
aS'@::spread::wing'
p1107
aS'wing::spread^-1::@'
p1108
aS'clearing::circle_about^-1::@'
p1109
aS'@::circle_about::clearing'
p1110
aS'true_burden::esteem^-1::@'
p1111
aS'@::esteem::true_burden'
p1112
aS'burden::esteem^-1::@'
p1113
aS'@::esteem::burden'
p1114
aS'@::esteem::burden_of_nobility'
p1115
aS'leg::have^-1::@'
p1116
aS'@::have::leg'
p1117
aS'@::bask_in::sun'
p1118
aS'sun::bask_in^-1::@'
p1119
aS'tail::have^-1::@'
p1120
aS'@::have::tail'
p1121
aS'dinosaur::mean::@'
p1122
aS'@::mean^-1::dinosaur'
p1123
aS'texas::horn::@'
p1124
aS'@::horn^-1::texas'
p1125
aS'@::include^-1::reptile'
p1126
aS'reptile::include::@'
p1127
aS'@::grow::tail'
p1128
aS'tail::grow^-1::@'
p1129
aS'@::have::eyelid'
p1130
aS'eyelid::have^-1::@'
p1131
aS'@::move_except^-1::thing'
p1132
aS'thing::move_except::@'
p1133
aS'dwelling::go_to^-1::@'
p1134
aS'@::go_to::dwelling'
p1135
aS'dog::bite::@'
p1136
aS'@::bite^-1::dog'
p1137
aS'market::go_to^-1::@'
p1138
aS'@::go_to::market'
p1139
aS'@::get_over::stile'
p1140
aS'stile::get_over^-1::@'
p1141
aS'@::feed::diet'
p1142
aS'diet::feed^-1::@'
p1143
aS'luxury::esteem^-1::@'
p1144
aS'@::esteem::luxury'
p1145
aS'@::esteem_from::period'
p1146
aS'period::esteem_from^-1::@'
p1147
aS'@::esteem_from::remote_period'
p1148
aS'remote_period::esteem_from^-1::@'
p1149
aS'east::esteem_over^-1::@'
p1150
aS'@::esteem_over::east'
p1151
aS'gain::make^-1::@'
p1152
aS'@::make::gain'
p1153
aS'@::miss::fire'
p1154
aS'fire::miss^-1::@'
p1155
aS'man::draw::@'
p1156
aS'@::draw^-1::man'
p1157
aS'@::fire^-1::man'
p1158
aS'man::fire::@'
p1159
aS'@::point_at::head'
p1160
aS'head::point_at^-1::@'
p1161
aS'holster::be_in^-1::@'
p1162
aS'@::be_in::holster'
p1163
aS'@::hold^-1::highwayman'
p1164
aS'highwayman::hold::@'
p1165
aS'man::pull::@'
p1166
aS'@::pull^-1::man'
p1167
aS'belt::stick_in^-1::@'
p1168
aS'@::stick_in::belt'
p1169
aS'officer::fire::@'
p1170
aS'@::fire^-1::officer'
p1171
aS'@::den::bos'
p1172
aS'bos::den^-1::@'
p1173
aS'hout::den^-1::@'
p1174
aS'@::den::hout'
p1175
aS'@::den::vondel'
p1176
aS'vondel::den^-1::@'
p1177
aS'pol::den^-1::@'
p1178
aS'@::den::pol'
p1179
aS'ban::den^-1::@'
p1180
aS'@::den::ban'
p1181
aS'@::den::abbeele'
p1182
aS'abbeele::den^-1::@'
p1183
aS'wyngaert::den^-1::@'
p1184
aS'@::den::wyngaert'
p1185
aS'oord::den^-1::@'
p1186
aS'@::den::oord'
p1187
aS'van::die^-1::@'
p1188
aS'@::die::van'
p1189
aS'driessche::den^-1::@'
p1190
aS'@::den::driessche'
p1191
aS'@::make^-1::ha'
p1192
aS'ha::make::@'
p1193
aS'@::play::theme'
p1194
aS'theme::play^-1::@'
p1195
aS'pang::proclaim^-1::@'
p1196
aS'@::proclaim::jealous_pang'
p1197
aS'jealous_pang::proclaim^-1::@'
p1198
aS'@::proclaim::pang'
p1199
aS'@::give_to^-1::theme'
p1200
aS'theme::give_to::@'
p1201
aS'melody::play^-1::@'
p1202
aS'@::play::melody'
p1203
aS'@::consist_of^-1::orchestra'
p1204
aS'orchestra::consist_of::@'
p1205
aS'@::have::string'
p1206
aS'string::have^-1::@'
p1207
aS'cup::@::floret'
p1208
aS'cup::@::floweret'
p1209
aS'cup::steam::@'
p1210
aS'@::steam^-1::cup'
p1211
aS'@::include^-1::food'
p1212
aS'food::include::@'
p1213
aS'@::blow^-1::hugo'
p1214
aS'hugo::blow::@'
p1215
aS'hurricane_hugo::blow::@'
p1216
aS'@::blow^-1::hurricane_hugo'
p1217
aS'@::flap::wing'
p1218
aS'wing::flap^-1::@'
p1219
aS'@::turn_into^-1::caterpillar'
p1220
aS'caterpillar::turn_into::@'
p1221
aS'stomach::flutter_in^-1::@'
p1222
aS'@::flutter_in::stomach'
p1223
aS'@::emerge_from::chrysalis'
p1224
aS'chrysalis::emerge_from^-1::@'
p1225
aS'@::be_over::grass'
p1226
aS'grass::be_over^-1::@'
p1227
aS'august::be_with^-1::@'
p1228
aS'@::be_with::august'
p1229
aS'@::be_over::grass_in_garden'
p1230
aS'grass_in_garden::be_over^-1::@'
p1231
aS'cock::@::time'
p1232
aS'@::make::wing'
p1233
aS'wing::make^-1::@'
p1234
aS'@::begin_to^-1::cock'
p1235
aS'cock::begin_to::@'
p1236
aS'wood::make_to^-1::@'
p1237
aS'@::make_to::wood'
p1238
aS'cock::do::@'
p1239
aS'@::do^-1::cock'
p1240
aS'rooster::@::time'
p1241
aS'cock::@::second_time'
p1242
aS'flock::fat_with^-1::@'
p1243
aS'@::fat_with::flock'
p1244
aS'eye::peck^-1::@'
p1245
aS'@::peck::eye'
p1246
aS'@::begin_to^-1::rooster'
p1247
aS'rooster::begin_to::@'
p1248
aS'dawn::announce^-1::@'
p1249
aS'@::announce::dawn'
p1250
aS'gobble::do^-1::@'
p1251
aS'hunter::kill::@'
p1252
aS'@::kill^-1::hunter'
p1253
aS'men::hunt::@'
p1254
aS'@::hunt^-1::men'
p1255
aS'@::include^-1::animal'
p1256
aS'animal::include::@'
p1257
aS'@::have::antler'
p1258
aS'antler::have^-1::@'
p1259
aS'@::include^-1::wildlife'
p1260
aS'wildlife::include::@'
p1261
aS'@::kill^-1::man'
p1262
aS'man::kill::@'
p1263
aS'@::include^-1::mammal'
p1264
aS'mammal::include::@'
p1265
aS'hunter::bring_in::@'
p1266
aS'@::bring_in^-1::hunter'
p1267
aS'@::leap_like^-1::lame'
p1268
aS'lame::leap_like::@'
p1269
aS'@::range_on^-1::row'
p1270
aS'row::range_on::@'
p1271
aS'@::range_on^-1::row_of_pewter'
p1272
aS'row_of_pewter::range_on::@'
p1273
aS'dish::glitter_along::@'
p1274
aS'@::glitter_along^-1::dish'
p1275
aS'@::glitter_along^-1::row_dish'
p1276
aS'row_dish::glitter_along::@'
p1277
aS'wall::stand_against^-1::@'
p1278
aS'@::stand_against::wall'
p1279
aS'dish_of_polemic::stand_upon::@'
p1280
aS'@::stand_upon^-1::dish_of_polemic'
p1281
aS'dish::stand_upon::@'
p1282
aS'@::stand_upon^-1::dish'
p1283
aS'delph::fill_with^-1::@'
p1284
aS'@::fill_with::delph'
p1285
aS'@::search^-1::officer'
p1286
aS'officer::search::@'
p1287
aS'@::be_on^-1::key'
p1288
aS'key::be_on::@'
p1289
aS'@::stirreth::nest'
p1290
aS'nest::stirreth^-1::@'
p1291
aS'feather::waft_from::@'
p1292
aS'@::waft_from^-1::feather'
p1293
aS'youth::renew_like::@'
p1294
aS'@::renew_like^-1::youth'
p1295
aS'@::be_like^-1::fourth_beast'
p1296
aS'fourth_beast::be_like::@'
p1297
aS'@::be_like^-1::beast'
p1298
aS'beast::be_like::@'
p1299
aS'@::soar_from::nest'
p1300
aS'nest::soar_from^-1::@'
p1301
aS'@::soar_by::foam'
p1302
aS'foam::soar_by^-1::@'
p1303
aS'sable::display^-1::@'
p1304
aS'@::display::sable'
p1305
aS'@::hear::falconer'
p1306
aS'falconer::hear^-1::@'
p1307
aS'trademark::register^-1::@'
p1308
aS'@::register::trademark'
p1309
aS'trademark_of_publishing::register^-1::@'
p1310
aS'@::register::trademark_of_publishing'
p1311
aS"@::be_by::hawk'd"
p1312
aS"hawk'd::be_by^-1::@"
p1313
aS'@::register::trademark_of_press'
p1314
aS'trademark_of_press::register^-1::@'
p1315
aS'@::sit_like^-1::stern_virtue'
p1316
aS'virtue::sit_like::@'
p1317
aS'stern_virtue::sit_like::@'
p1318
aS'@::sit_like^-1::virtue'
p1319
aS'prey::be_for^-1::@'
p1320
aS'@::be_for::prey'
p1321
aS'owl::be_by^-1::@'
p1322
aS'@::be_by::owl'
p1323
aS'ground::make_across^-1::@'
p1324
aS'@::make_across::ground'
p1325
aS'book::return_to::@'
p1326
aS'@::return_to^-1::book'
p1327
aS'@::contain::volume'
p1328
aS'volume::contain^-1::@'
p1329
aS'book::contain^-1::@'
p1330
aS'@::contain::book'
p1331
aS'@::be_in^-1::manuscript'
p1332
aS'manuscript::be_in::@'
p1333
aS'@::open_to::public'
p1334
aS'public::open_to^-1::@'
p1335
aS'collection::contain^-1::@'
p1336
aS'@::contain::collection'
p1337
aS'title::hold^-1::@'
p1338
aS'@::hold::title'
p1339
aS'copy::preserve_in::@'
p1340
aS'@::preserve_in^-1::copy'
p1341
aS'@::include::bibliographical_reference'
p1342
aS'bibliographical_reference::include^-1::@'
p1343
aS'@::find_in^-1::copy'
p1344
aS'copy::find_in::@'
p1345
aS'sea_horse::buy::@'
p1346
aS'@::buy^-1::sea_horse'
p1347
aS'horse::buy::@'
p1348
aS'@::buy^-1::horse'
p1349
aS'little_kid::be_with::@'
p1350
aS'@::be_with^-1::little_kid'
p1351
aS'@::give_to^-1::bicycle'
p1352
aS'@::hide^-1::rufus'
p1353
aS'bicycle::give_to::@'
p1354
aS'diana::nickname::@'
p1355
aS'rufus::hide::@'
p1356
aS'@::nickname^-1::diana'
p1357
aS'@::evaluate^-1::respondent'
p1358
aS'respondent::evaluate::@'
p1359
aS'leg_muscle::develop^-1::@'
p1360
aS'@::develop::leg_muscle'
p1361
aS'@::learn_on^-1::lesson_of_balance'
p1362
aS'@::learn_on^-1::previous_lesson'
p1363
aS'@::heat_by^-1::room'
p1364
aS'room::heat_by::@'
p1365
aS'@::do_on^-1::cooking'
p1366
aS'cooking::do_on::@'
p1367
aS'fire::burn_in::@'
p1368
aS'@::burn_in^-1::fire'
p1369
aS'heat::give^-1::@'
p1370
aS'@::give::heat'
p1371
aS'heat::provide^-1::@'
p1372
aS'@::provide::heat'
p1373
aS'house::heat_by::@'
p1374
aS'@::heat_by^-1::house'
p1375
aS'fire::crackle_in::@'
p1376
aS'@::crackle_in^-1::fire'
p1377
aS'room::heat^-1::@'
p1378
aS'@::heat::room'
p1379
aS'@::simmer_on^-1::pot'
p1380
aS'pot::simmer_on::@'
p1381
aS'@::take::fly'
p1382
aS'fly::take^-1::@'
p1383
aS'fly::rise_to^-1::@'
p1384
aS'@::rise_to::fly'
p1385
aS'stream::stock_with::@'
p1386
aS'@::stock_with^-1::stream'
p1387
aS'@::find_in::stream'
p1388
aS'stream::find_in^-1::@'
p1389
aS'stream::abound_in::@'
p1390
aS'@::abound_in^-1::stream'
p1391
aS'@::be_in::stream'
p1392
aS'stream::be_in^-1::@'
p1393
aS'@::find_in::lake'
p1394
aS'lake::find_in^-1::@'
p1395
aS'river::stock_with::@'
p1396
aS'@::stock_with^-1::river'
p1397
aS'@::contain^-1::lake'
p1398
aS'lake::contain::@'
p1399
aS'nut::use_under^-1::@'
p1400
aS'@::use_under::nut'
p1401
aS'@::use_under::head'
p1402
aS'head::use_under^-1::@'
p1403
aS'bolt::have::@'
p1404
aS'@::have^-1::bolt'
p1405
aS'head::place_under^-1::@'
p1406
aS'@::place_under::head'
p1407
aS'nut::place_under^-1::@'
p1408
aS'@::place_under::nut'
p1409
aS'position::lock::@'
p1410
aS'@::lock^-1::position'
p1411
aS'lockwasher::use_between^-1::@'
p1412
aS'@::use_between::lockwasher'
p1413
aS'@::use_in::following_function'
p1414
aS'following_function::use_in^-1::@'
p1415
aS'@::use_under::bolt_head'
p1416
aS'bolt_head::use_under^-1::@'
p1417
aS'@::use_as::spacers'
p1418
aS'spacers::use_as^-1::@'
p1419
aS'@::keep_in^-1::patient'
p1420
aS'patient::keep_in::@'
p1421
aS'patient::remain_in::@'
p1422
aS'@::remain_in^-1::patient'
p1423
aS'@::confine_to^-1::patient'
p1424
aS'patient::confine_to::@'
p1425
aS'patient::put_to::@'
p1426
aS'@::put_to^-1::patient'
p1427
aS'patient::lie_in::@'
p1428
aS'@::lie_in^-1::patient'
p1429
aS'hospital::have::@'
p1430
aS'@::have^-1::hospital'
p1431
aS'@::go_to^-1::everyone'
p1432
aS'everyone::go_to::@'
p1433
aS'@::go_to^-1::child'
p1434
aS'child::go_to::@'
p1435
aS'@::place_in^-1::patient'
p1436
aS'patient::place_in::@'
p1437
aS'@::be_in^-1::kid'
p1438
aS'kid::be_in::@'
p1439
aS'@::geologists^-1::petroleum'
p1440
aS'petroleum::geologists::@'
p1441
aS'@::issue^-1::pope'
p1442
aS'pope::issue::@'
p1443
aS'luther::burn::@'
p1444
aS'@::burn^-1::luther'
p1445
aS'head::lower^-1::@'
p1446
aS'@::lower::head'
p1447
aS'horn::have^-1::@'
p1448
aS'@::have::horn'
p1449
aS'@::issue^-1::viii'
p1450
aS'viii::issue::@'
p1451
aS'@::issue^-1::v'
p1452
aS'v::issue::@'
p1453
aS'eugene::@::connor'
p1454
aS'iv::issue::@'
p1455
aS'@::issue^-1::iv'
p1456
aS'@::sit^-1::chief'
p1457
aS'chief::sit::@'
p1458
aS'vi::issue::@'
p1459
aS'bait_of_falsehood::take::@'
p1460
aS'@::take^-1::bait_of_falsehood'
p1461
aS'@::take^-1::bait'
p1462
aS'bait::take::@'
p1463
aS'@::stock_with^-1::pond'
p1464
aS'pond::stock_with::@'
p1465
aS'pond::breed_in^-1::@'
p1466
aS'@::breed_in::pond'
p1467
aS'cold_pond::breed_in^-1::@'
p1468
aS'@::breed_in::cold_pond'
p1469
aS'@::grow_to::bigness'
p1470
aS'bigness::grow_to^-1::@'
p1471
aS'@::eat_in::hot_month'
p1472
aS'hot_month::eat_in^-1::@'
p1473
aS'generation::breed_by^-1::@'
p1474
aS'@::breed_by::generation'
p1475
aS'bait::take^-1::@'
p1476
aS'@::take::bait'
p1477
aS'incision::make_with::@'
p1478
aS'@::make_with^-1::incision'
p1479
aS'blade::have^-1::@'
p1480
aS'@::have::blade'
p1481
aS'@::cut_like^-1::word'
p1482
aS'word::cut_like::@'
p1483
aS'throat::be_at^-1::@'
p1484
aS'@::be_at::throat'
p1485
aS'@::cut_with^-1::section'
p1486
aS'section::cut_with::@'
p1487
aS'hand::fell_from^-1::@'
p1488
aS'@::fell_from::hand'
p1489
aS'handle::have^-1::@'
p1490
aS'@::have::handle'
p1491
aS'cut::make_with::@'
p1492
aS'@::make_with^-1::cut'
p1493
aS'@::fell^-1::stroke'
p1494
aS'stroke::fell::@'
p1495
aS'@::fell^-1::little_stroke'
p1496
aS'little_stroke::fell::@'
p1497
aS'door::be_of::@'
p1498
aS'@::be_of^-1::door'
p1499
aS'@::be_of^-1::floor'
p1500
aS'floor::be_of::@'
p1501
aS'@::grow_into^-1::acorn'
p1502
aS'acorn::grow_into::@'
p1503
aS'root::send^-1::@'
p1504
aS'@::send::root'
p1505
aS'@::be_of^-1::furniture'
p1506
aS'furniture::be_of::@'
p1507
aS'@::have::leaf'
p1508
aS'leaf::have^-1::@'
p1509
aS'frame::be_of::@'
p1510
aS'@::be_of^-1::frame'
p1511
aS'@::be_of^-1::roof'
p1512
aS'roof::be_of::@'
p1513
aS'tablespoon::chop::@'
p1514
aS'@::chop^-1::tablespoon'
p1515
aS'tablespoon::mince::@'
p1516
aS'@::mince^-1::tablespoon'
p1517
aS'cup::mince::@'
p1518
aS'@::mince^-1::cup'
p1519
aS'@::dice^-1::cup'
p1520
aS'cup::dice::@'
p1521
aS'oil::saute::@'
p1522
aS'@::saute^-1::oil'
p1523
aS'garlic::chop^-1::@'
p1524
aS'@::chop::garlic'
p1525
aS'clove_garlic::chop^-1::@'
p1526
aS'@::chop::clove_garlic'
p1527
aS'@::chop^-1::peel'
p1528
aS'peel::chop::@'
p1529
aS'skin::shed^-1::@'
p1530
aS'@::shed::skin'
p1531
aS'fang::have^-1::@'
p1532
aS'@::have::fang'
p1533
aS'man::bite_by::@'
p1534
aS'@::bite_by^-1::man'
p1535
aS'elephant::be_like::@'
p1536
aS'@::be_like^-1::elephant'
p1537
aS'frog::eat^-1::@'
p1538
aS'@::eat::frog'
p1539
aS'@::cross::path'
p1540
aS'path::cross^-1::@'
p1541
aS'skin::slough^-1::@'
p1542
aS'@::slough::skin'
p1543
aS'@::bite_by^-1::person'
p1544
aS'person::bite_by::@'
p1545
aS'hot_day::come_on^-1::@'
p1546
aS'@::come_on::hot_day'
p1547
aS'skin::cast^-1::@'
p1548
aS'@::cast::skin'
p1549
aS'constitution::@::power'
p1550
aS'congress::@::appointment'
p1551
aS'congress::@::appointment_of_officer'
p1552
aS'constitution::@::executive_power'
p1553
aS'constitution::@::judicial_power'
p1554
aS'constitution::@::legislative_power'
p1555
aS'constitution::@::authority'
p1556
aS'constitution::@::power_in_court'
p1557
aS'article::@::power'
p1558
aS'act::@::power'
p1559
aS'constitution::@::power_of_state'
p1560
aS'constitution::@::whole_power'
p1561
aS'@::burn_through^-1::limb'
p1562
aS'limb::burn_through::@'
p1563
aS'section::@::power'
p1564
aS'constitution::@::power_in_president'
p1565
aS'law::@::power'
p1566
aS'congress::@::power'
p1567
aS'@::be_of::satin'
p1568
aS'satin::be_of^-1::@'
p1569
aS'@::have::sleeve'
p1570
aS'neck::be_at^-1::@'
p1571
aS'@::be_at::neck'
p1572
aS'woman::wear_with::@'
p1573
aS'@::wear_with^-1::woman'
p1574
aS'woman::dress_in::@'
p1575
aS'@::dress_in^-1::woman'
p1576
aS'costume::consist_of::@'
p1577
aS'@::consist_of^-1::costume'
p1578
aS'skirt::tuck_into^-1::@'
p1579
aS'@::tuck_into::skirt'
p1580
aS'@::unbutton^-1::finger'
p1581
aS'finger::unbutton::@'
p1582
aS'hiroshima::drop_on^-1::@'
p1583
aS'@::drop_on::hiroshima'
p1584
aS'plane::drop::@'
p1585
aS'@::drop^-1::plane'
p1586
aS'japanese::@::harbor'
p1587
aS'japanese::@::pearl_harbor'
p1588
aS'state::drop::@'
p1589
aS'@::drop^-1::state'
p1590
aS'@::drop^-1::united_state'
p1591
aS'united_state::drop::@'
p1592
aS'@::drop_on::nagasaki'
p1593
aS'nagasaki::drop_on^-1::@'
p1594
aS'japan::drop_on^-1::@'
p1595
aS'@::drop_on::japan'
p1596
aS'@::kill::people'
p1597
aS'people::kill^-1::@'
p1598
aS'bomber::drop::@'
p1599
aS'@::drop^-1::bomber'
p1600
aS'@::drop_on::city'
p1601
aS'city::drop_on^-1::@'
p1602
aS'wall::line^-1::@'
p1603
aS'@::line::wall'
p1604
aS'@::line_with^-1::wall'
p1605
aS'wall::line_with::@'
p1606
aS'book::fill_with^-1::@'
p1607
aS'@::fill_with::book'
p1608
aS'mechanic::be_without^-1::@'
p1609
aS'@::be_without::mechanic'
p1610
aS'practical_mechanic::be_without^-1::@'
p1611
aS'@::be_without::practical_mechanic'
p1612
aS'volume::fill_with^-1::@'
p1613
aS'@::fill_with::volume'
p1614
aS'bust::set_with^-1::@'
p1615
aS'@::set_with::bust'
p1616
aS'@::hold::book'
p1617
aS'book::hold^-1::@'
p1618
aS'@::cover::wall'
p1619
aS'wall::cover^-1::@'
p1620
aS'@::make::stop'
p1621
aS'stop::make^-1::@'
p1622
aS'@::leave::minute'
p1623
aS'minute::leave^-1::@'
p1624
aS'@::leave_from::station'
p1625
aS'station::leave_from^-1::@'
p1626
aS'hour::leave^-1::@'
p1627
aS'@::leave::hour'
p1628
aS'terminal::leave_from^-1::@'
p1629
aS'@::leave_from::terminal'
p1630
aS'@::run::minute'
p1631
aS'minute::run^-1::@'
p1632
aS'driver::stop::@'
p1633
aS'@::stop^-1::driver'
p1634
aS'passenger::carry^-1::@'
p1635
aS'@::carry::passenger'
p1636
aS'@::be_in::driveway'
p1637
aS'driveway::be_in^-1::@'
p1638
aS'garage::be_in^-1::@'
p1639
aS'@::be_in::garage'
p1640
aS'@::drive^-1::people'
p1641
aS'people::drive::@'
p1642
aS'corner::turn^-1::@'
p1643
aS'@::turn::corner'
p1644
aS'@::chop^-1::onion'
p1645
aS'onion::chop::@'
p1646
aS'vi_cup::chop::@'
p1647
aS'@::chop^-1::vi_cup'
p1648
aS'@::stalk^-1::medium'
p1649
aS'medium::stalk::@'
p1650
aS'@::cut^-1::cup'
p1651
aS'cup::cut::@'
p1652
aS'@::fashion::form_of_youth'
p1653
aS'form_of_youth::fashion^-1::@'
p1654
aS'@::remove_with^-1::bone'
p1655
aS'bone::remove_with::@'
p1656
aS'@::fashion::form'
p1657
aS'form::fashion^-1::@'
p1658
aS'versatile_machinery::make::@'
p1659
aS'wise_machinery::make::@'
p1660
aS'@::make^-1::versatile_machinery'
p1661
aS'@::make^-1::wise_machinery'
p1662
aS'@::sharpen^-1::crowd'
p1663
aS'hungry_crowd::sharpen::@'
p1664
aS'crowd::sharpen::@'
p1665
aS'@::sharpen^-1::hungry_crowd'
p1666
aS'crowd_of_shipwright::sharpen::@'
p1667
aS'@::sharpen^-1::crowd_of_shipwright'
p1668
aS'return::to::@'
p1669
aS'@::to^-1::return'
p1670
aS'@::present_at^-1::book'
p1671
aS'book::present_at::@'
p1672
aS'@::bring_to^-1::book'
p1673
aS'book::bring_to::@'
p1674
aS'man::sit_at::@'
p1675
aS'@::sit_at^-1::man'
p1676
aS'man::sit_behind::@'
p1677
aS'@::sit_behind^-1::man'
p1678
aS'@::sit_at^-1::woman'
p1679
aS'woman::sit_at::@'
p1680
aS'woman::sit_behind::@'
p1681
aS'@::sit_behind^-1::woman'
p1682
aS'book::be_on::@'
p1683
aS'@::be_on^-1::book'
p1684
aS'phone::ring_on::@'
p1685
aS'@::ring_on^-1::phone'
p1686
aS'child::sit_at::@'
p1687
aS'@::sit_at^-1::child'
p1688
aS'@::beat_like^-1::heart'
p1689
aS'heart::beat_like::@'
p1690
aS'string::strike^-1::@'
p1691
aS'@::strike::string'
p1692
aS'heart::pound_like::@'
p1693
aS'@::pound_like^-1::heart'
p1694
aS'ball::peen::@'
p1695
aS'@::peen^-1::ball'
p1696
aS'heart::go_like::@'
p1697
aS'@::go_like^-1::heart'
p1698
aS'@::hit_with^-1::someone'
p1699
aS'someone::hit_with::@'
p1700
aS'heart::thump_like::@'
p1701
aS'@::thump_like^-1::heart'
p1702
aS'string::strike_by::@'
p1703
aS'@::strike_by^-1::string'
p1704
aS'@::drive_with^-1::pile'
p1705
aS'pile::drive_with::@'
p1706
aS'bell::strike^-1::@'
p1707
aS'@::strike::bell'
p1708
aS'jay::fly^-1::@'
p1709
aS'@::fly::jay'
p1710
aS'bush::sit_on^-1::@'
p1711
aS'@::sit_on::bush'
p1712
aS'@::do::poor_thing'
p1713
aS'poor_thing::do^-1::@'
p1714
aS'@::restore::amends'
p1715
aS'amends::restore^-1::@'
p1716
aS'@::throw::lively_note'
p1717
aS'lively_note::throw^-1::@'
p1718
aS'late_strain::throw_into^-1::@'
p1719
aS'@::throw_into::late_strain'
p1720
aS'querulous_strain::throw_into^-1::@'
p1721
aS'@::throw_into::wintry_strain'
p1722
aS'wintry_strain::throw_into^-1::@'
p1723
aS'@::throw_into::querulous_strain'
p1724
aS'@::throw_into::strain'
p1725
aS'strain::throw_into^-1::@'
p1726
aS'@::play^-1::squirrel'
p1727
aS'squirrel::play::@'
p1728
aS'@::strike::something'
p1729
aS'something::strike^-1::@'
p1730
aS'spade::call::@'
p1731
aS'@::call^-1::spade'
p1732
aS'@::call::spade'
p1733
aS'spade::call^-1::@'
p1734
aS'something::strike_upon^-1::@'
p1735
aS'@::strike_upon::something'
p1736
aS'@::trench_by^-1::ground'
p1737
aS'ground::trench_by::@'
p1738
aS'fellow::handle::@'
p1739
aS'@::handle^-1::fellow'
p1740
aS'@::have^-1::partner'
p1741
aS'partner::have::@'
p1742
aS'@::provide_by::vanity'
p1743
aS'vanity::provide_by^-1::@'
p1744
aS'@::bid^-1::partner'
p1745
aS'partner::bid::@'
p1746
aS'dish::run_with::@'
p1747
aS'@::run_with^-1::dish'
p1748
aS'@::measure_with^-1::dose'
p1749
aS'dose::measure_with::@'
p1750
aS'@::bear_with^-1::man'
p1751
aS'man::bear_with::@'
p1752
aS'@::perceive::taste_of_soup'
p1753
aS'taste_of_soup::perceive^-1::@'
p1754
aS'@::perceive::taste'
p1755
aS'taste::perceive^-1::@'
p1756
aS'bowl::have^-1::@'
p1757
aS'@::have::bowl'
p1758
aS'horn::make_of^-1::@'
p1759
aS'@::make_of::horn'
p1760
aS'chowder::make_with::@'
p1761
aS'@::make_with^-1::chowder'
p1762
aS'child::feed_with::@'
p1763
aS'@::feed_with^-1::child'
p1764
aS'@::propagate_through::sheer_envy'
p1765
aS'sheer_envy::propagate_through^-1::@'
p1766
aS'@::propagate_through::envy'
p1767
aS'envy::propagate_through^-1::@'
p1768
aS'report::propagate^-1::@'
p1769
aS'@::propagate::report'
p1770
aS'peasant::pay_in::@'
p1771
aS'@::pay_in^-1::peasant'
p1772
aS'@::produce_in::england'
p1773
aS'england::produce_in^-1::@'
p1774
aS'poor_lad::lay_with::@'
p1775
aS'@::lay_with^-1::poor_lad'
p1776
aS'lad::lay_with::@'
p1777
aS'@::lay_with^-1::lad'
p1778
aS'old_man::pull::@'
p1779
aS'@::pull^-1::old_man'
p1780
aS'passion::restrain^-1::@'
p1781
aS'@::restrain::passion'
p1782
aS'way::keep^-1::@'
p1783
aS'@::keep::way'
p1784
aS'@::observe::time'
p1785
aS'time::observe^-1::@'
p1786
aS'@::have::shell'
p1787
aS'shell::have^-1::@'
p1788
aS'sea::@::nest'
p1789
aS'@::rest_on::log'
p1790
aS'log::rest_on^-1::@'
p1791
aS'ship::turn::@'
p1792
aS'@::turn^-1::ship'
p1793
aS'sight::saw_in^-1::@'
p1794
aS'@::saw_in::sight'
p1795
aS'@::live_in::water'
p1796
aS'water::live_in^-1::@'
p1797
aS'flaming::saw^-1::@'
p1798
aS'@::saw::flaming'
p1799
aS'@::saw::right_flaming'
p1800
aS'right_flaming::saw^-1::@'
p1801
aS'@::lay_in::sand'
p1802
aS'sand::lay_in^-1::@'
p1803
aS'@::rest_beside::log'
p1804
aS'@::capture::frolic'
p1805
aS'frolic::capture^-1::@'
p1806
aS'sting::have^-1::@'
p1807
aS'@::have::sting'
p1808
aS'cricket::destroy_like::@'
p1809
aS'@::destroy_like^-1::cricket'
p1810
aS'@::wear::sting'
p1811
aS'sting::wear^-1::@'
p1812
aS'thousand::come_by^-1::@'
p1813
aS'@::come_by::thousand'
p1814
aS'nest::construct^-1::@'
p1815
aS'@::construct::nest'
p1816
aS'reverend_man::nail::@'
p1817
aS'@::nail^-1::reverend_man'
p1818
aS'man::nail::@'
p1819
aS'@::nail^-1::man'
p1820
aS'@::dry^-1::pound'
p1821
aS'pound::dry::@'
p1822
aS'tito::buy::@'
p1823
aS'@::buy^-1::tito'
p1824
aS'@::include^-1::fruit'
p1825
aS'fruit::include::@'
p1826
aS'@::manipulate^-1::landlady'
p1827
aS'landlady::manipulate::@'
p1828
aS'ounce::dry::@'
p1829
aS'@::dry^-1::ounce'
p1830
aS'@::preserve_in::saucepan'
p1831
aS'saucepan::preserve_in^-1::@'
p1832
aS'solution::keep_in::@'
p1833
aS'@::keep_in^-1::solution'
p1834
aS'always::bring::@'
p1835
aS'@::bring^-1::always'
p1836
aS'solution::store_in::@'
p1837
aS'@::store_in^-1::solution'
p1838
aS'@::collect_in^-1::sample'
p1839
aS'sample::collect_in::@'
p1840
aS'@::put_into^-1::wine'
p1841
aS'wine::put_into::@'
p1842
aS'new_wine::put_into::@'
p1843
aS'@::put_into^-1::new_wine'
p1844
aS'@::burst^-1::wine'
p1845
aS'wine::burst::@'
p1846
aS'new_wine::burst::@'
p1847
aS'@::burst^-1::new_wine'
p1848
aS'@::grow_in::plain_sight'
p1849
aS'plain_sight::grow_in^-1::@'
p1850
aS'@::grow_in::sight'
p1851
aS'sight::grow_in^-1::@'
p1852
aS'@::rename^-1::sauerkraut'
p1853
aS'sauerkraut::rename::@'
p1854
aS'cow::eat::@'
p1855
aS'@::eat^-1::cow'
p1856
aS'@::eat^-1::goat'
p1857
aS'goat::eat::@'
p1858
aS'hallway::smelt_of::@'
p1859
aS'@::smelt_of^-1::hallway'
p1860
aS'@::plant^-1::creditor'
p1861
aS'creditor::plant::@'
p1862
aS'@::appear_in^-1::theme'
p1863
aS'theme::appear_in::@'
p1864
aS'@::give_by^-1::theme'
p1865
aS'theme::give_by::@'
p1866
aS'@::give_by^-1::subject'
p1867
aS'subject::give_by::@'
p1868
aS'theme::announce_by::@'
p1869
aS'@::announce_by^-1::theme'
p1870
aS'theme::sing^-1::@'
p1871
aS'@::sing::theme'
p1872
aS'second_theme::appear_in::@'
p1873
aS'@::appear_in^-1::second_theme'
p1874
aS'@::sing_by^-1::theme'
p1875
aS'theme::sing_by::@'
p1876
aS'subject::give_to::@'
p1877
aS'@::give_to^-1::subject'
p1878
aS'theme::continue_by::@'
p1879
aS'@::continue_by^-1::theme'
p1880
aS'@::store_in^-1::sample'
p1881
aS'sample::store_in::@'
p1882
aS'lady::invent::@'
p1883
aS'@::invent^-1::lady'
p1884
aS'@::draw_from^-1::cream'
p1885
aS'cream::draw_from::@'
p1886
aS'@::place_from^-1::frozen_cooky'
p1887
aS'cooky::place_from::@'
p1888
aS'@::draw_from^-1::ice_cream'
p1889
aS'frozen_cooky::place_from::@'
p1890
aS'@::place_from^-1::cooky'
p1891
aS'ice_cream::draw_from::@'
p1892
aS'milk::store_in::@'
p1893
aS'@::store_in^-1::milk'
p1894
aS'product::freeze_in::@'
p1895
aS'@::freeze_in^-1::product'
p1896
aS'bottle::be_in::@'
p1897
aS'@::be_in^-1::bottle'
p1898
aS'@::hide_in^-1::maid'
p1899
aS'maid::hide_in::@'
p1900
aS'@::scramble_on^-1::magnet_program'
p1901
aS'@::scramble_on^-1::code_program'
p1902
aS'magnet_program::scramble_on::@'
p1903
aS'code_program::scramble_on::@'
p1904
aS'store::cover_in::@'
p1905
aS'@::cover_in^-1::store'
p1906
aS'sauce::keep_in::@'
p1907
aS'@::keep_in^-1::sauce'
p1908
aS'key::be_in::@'
p1909
aS'@::be_in^-1::key'
p1910
aS'@::scramble_on^-1::java_program'
p1911
aS'@::scramble_on^-1::program'
p1912
aS'@::scramble_on^-1::a_program'
p1913
aS'a_program::scramble_on::@'
p1914
aS'java_program::scramble_on::@'
p1915
aS'program::scramble_on::@'
p1916
aS'@::glide_into::bunch'
p1917
aS'sharp_sound::rise_with^-1::@'
p1918
aS'bunch::glide_into^-1::@'
p1919
aS'hilma::look_at::@'
p1920
aS'@::rise_with::sharp_sound'
p1921
aS'@::look_at^-1::hilma'
p1922
aS'@::writhe_against::sky'
p1923
aS'sky::writhe_against^-1::@'
p1924
aS'@::be_in::active_motion'
p1925
aS'active_motion::be_in^-1::@'
p1926
aS'artificial_lake::stock_with::@'
p1927
aS'@::stock_with^-1::artificial_lake'
p1928
aS'sound::rise_with^-1::@'
p1929
aS'@::rise_with::sound'
p1930
aS'@::turn::iridescent_flank'
p1931
aS'iridescent_flank::turn^-1::@'
p1932
aS'@::have::span_of_second'
p1933
aS'span_of_second::have^-1::@'
p1934
aS'show::keep_for^-1::@'
p1935
aS'@::keep_for::show'
p1936
aS'extract::seed^-1::@'
p1937
aS'@::seed::extract'
p1938
aS'@::eat^-1::jack'
p1939
aS'jack::eat::@'
p1940
aS'@::originate_in::indie'
p1941
aS'indie::originate_in^-1::@'
p1942
aS'florida::grow_in^-1::@'
p1943
aS'@::grow_in::florida'
p1944
aS'west_indie::originate_in^-1::@'
p1945
aS'@::originate_in::west_indie'
p1946
aS'laboratory_study::find_from::@'
p1947
aS'@::find_from^-1::laboratory_study'
p1948
aS'@::find_in^-1::lycopene'
p1949
aS'lycopene::find_in::@'
p1950
aS'@::find_from^-1::study'
p1951
aS'study::find_from::@'
p1952
aS'betty::saw::@'
p1953
aS'@::saw^-1::betty'
p1954
aS'section::serve_in^-1::@'
p1955
aS'@::give^-1::life'
p1956
aS'life::give::@'
p1957
aS'more_zest::have^-1::@'
p1958
aS'@::have::more_zest'
p1959
aS'@::make::lemonade'
p1960
aS'lemonade::make^-1::@'
p1961
aS'@::have::zest'
p1962
aS'zest::have^-1::@'
p1963
aS'@::meet_with::large_manuscript'
p1964
aS'large_manuscript::meet_with^-1::@'
p1965
aS'manuscript::meet_with^-1::@'
p1966
aS'@::meet_with::manuscript'
p1967
aS'latin_manuscript::meet_with^-1::@'
p1968
aS'@::meet_with::latin_manuscript'
p1969
aS'@::have::pip'
p1970
aS'pip::have^-1::@'
p1971
aS'@::give::day'
p1972
aS'day::give^-1::@'
p1973
aS'@::sit_among::glass'
p1974
aS'glass::sit_among^-1::@'
p1975
aS'@::ring::time'
p1976
aS'time::ring^-1::@'
p1977
aS'ring::begin_to^-1::@'
p1978
aS'@::begin_to::ring'
p1979
aS'hook::ring^-1::@'
p1980
aS'@::ring::hook'
p1981
aS'@::start_to::ring'
p1982
aS'ring::start_to^-1::@'
p1983
aS'several_time::ring^-1::@'
p1984
aS'@::ring::several_time'
p1985
aS'room::ring_in^-1::@'
p1986
aS'@::ring_in::room'
p1987
aS'@::ring_in::office'
p1988
aS'office::ring_in^-1::@'
p1989
aS'one::answer::@'
p1990
aS'@::answer^-1::one'
p1991
aS'@::continue_to::ring'
p1992
aS'ring::continue_to^-1::@'
p1993
aS'@::answer^-1::mother'
p1994
aS'mother::answer::@'
p1995
aS'@::peck::key'
p1996
aS'key::peck^-1::@'
p1997
aS'@::put_in::comfortable_pie'
p1998
aS'comfortable_pie::put_in^-1::@'
p1999
aS'pie::put_in^-1::@'
p2000
aS'@::put_in::pie'
p2001
aS'@::put_to::bed'
p2002
aS'bed::put_to^-1::@'
p2003
aS'zoo::die_in^-1::@'
p2004
aS'@::die_in::zoo'
p2005
aS'life::mat_for^-1::@'
p2006
aS'@::mat_for::life'
p2007
aS'@::die_in::cincinnati_zoo'
p2008
aS'cincinnati_zoo::die_in^-1::@'
p2009
aS'fancier::strike_by::@'
p2010
aS'@::strike_by^-1::fancier'
p2011
aS'grain_of_hoard::touch^-1::@'
p2012
aS'@::touch::grain_of_hoard'
p2013
aS'cup::mash::@'
p2014
aS'@::mash^-1::cup'
p2015
aS'@::include^-1::crop'
p2016
aS'crop::include::@'
p2017
aS'peter::mash::@'
p2018
aS'@::mash^-1::peter'
p2019
aS'@::mash^-1::master_peter'
p2020
aS'master_peter::mash::@'
p2021
aS'@::size^-1::medium'
p2022
aS'medium::size::@'
p2023
aS'@::mash^-1::instant'
p2024
aS'instant::mash::@'
p2025
aS'@::cut_into::piece'
p2026
aS'piece::cut_into^-1::@'
p2027
aS'food::consist_of::@'
p2028
aS'@::consist_of^-1::food'
p2029
aS'@::grow^-1::farmer'
p2030
aS'farmer::grow::@'
p2031
aS'lever::press^-1::@'
p2032
aS'@::press::lever'
p2033
aS'injection::receive^-1::@'
p2034
aS'@::receive::injection'
p2035
aS'effect::induce_in::@'
p2036
aS'@::induce_in^-1::effect'
p2037
aS'cage::place_in^-1::@'
p2038
aS'@::place_in::cage'
p2039
aS'injection::give^-1::@'
p2040
aS'@::give::injection'
p2041
aS'@::learn::maze'
p2042
aS'maze::learn^-1::@'
p2043
aS'@::leave::ship'
p2044
aS'ship::leave^-1::@'
p2045
aS'@::shake^-1::terrier'
p2046
aS'terrier::shake::@'
p2047
aS'@::observe_in^-1::effect'
p2048
aS'effect::observe_in::@'
p2049
aS'cent::pass::@'
p2050
aS'@::pass^-1::cent'
p2051
aS'@::pass^-1::%'
p2052
aS'%::pass::@'
p2053
aS'cent::pass_through::@'
p2054
aS'@::pass_through^-1::cent'
p2055
aS'sample::pass_through::@'
p2056
aS'@::pass_through^-1::sample'
p2057
aS'@::retain_on^-1::material'
p2058
aS'material::retain_on::@'
p2059
aS'@::pass_through^-1::%'
p2060
aS'%::pass_through::@'
p2061
aS'@::pass_through^-1::powder'
p2062
aS'powder::pass_through::@'
p2063
aS'@::retain_on^-1::%'
p2064
aS'%::retain_on::@'
p2065
aS'particle::pass_through::@'
p2066
aS'@::pass_through^-1::particle'
p2067
aS'@::sift_in^-1::corn'
p2068
aS'corn::sift_in::@'
p2069
aS'@::fall_without::notice'
p2070
aS'notice::fall_without^-1::@'
p2071
aS'farthing::sell_for^-1::@'
p2072
aS'@::sell_for::farthing'
p2073
aS'@::falleth_to::ground'
p2074
aS'ground::falleth_to^-1::@'
p2075
aS'father::fall_without^-1::@'
p2076
aS'@::fall_without::father'
p2077
aS'@::fall_without::knowledge'
p2078
aS'knowledge::fall_without^-1::@'
p2079
aS'penny::sell_for^-1::@'
p2080
aS'@::sell_for::penny'
p2081
aS'window::come_before^-1::@'
p2082
aS'@::come_before::window'
p2083
aS'@::falleth_without::father'
p2084
aS'father::falleth_without^-1::@'
p2085
aS'@::die^-1::summer'
p2086
aS'summer::die::@'
p2087
aS'duckling::turn_into::@'
p2088
aS'@::turn_into^-1::duckling'
p2089
aS'bosom::sail_upon^-1::@'
p2090
aS'@::sail_upon::bosom'
p2091
aS'ugly_duckling::turn_into::@'
p2092
aS'@::turn_into^-1::ugly_duckling'
p2093
aS'sound_of_stream::glide_with^-1::@'
p2094
aS'@::glide_with::sound_of_stream'
p2095
aS'@::glide_with::sound'
p2096
aS'sound::glide_with^-1::@'
p2097
aS'australia::discover_in^-1::@'
p2098
aS'@::discover_in::australia'
p2099
aS'@::din_with^-1::learned_friend'
p2100
aS'learned_friend::din_with::@'
p2101
aS'friend::din_with::@'
p2102
aS'@::din_with^-1::friend'
p2103
aS'@::sing_before::death'
p2104
aS'death::sing_before^-1::@'
p2105
aS'adjustable::@::wrench'
p2106
aS'@::wrench^-1::adjustable'
p2107
aS'adjustable::wrench::@'
p2108
aS'adjustable::@::adjustable_wrench'
p2109
aS'jaw::have^-1::@'
p2110
aS'@::have::jaw'
p2111
aS'@::tighten_with^-1::nut'
p2112
aS'nut::tighten_with::@'
p2113
aS'@::tighten_with^-1::bolt'
p2114
aS'bolt::tighten_with::@'
p2115
aS'@::use_as::wrench'
p2116
aS'wrench::use_as^-1::@'
p2117
aS'@::use_as^-1::wrench'
p2118
aS'wrench::use_as::@'
p2119
aS'nut::fit^-1::@'
p2120
aS'@::fit::nut'
p2121
aS'@::use_as^-1::adjustable_wrench'
p2122
aS'adjustable_wrench::use_as::@'
p2123
aS'backup_wrench::use_as^-1::@'
p2124
aS'@::use_as::backup_wrench'
p2125
aS'possession::describe_for^-1::@'
p2126
aS'@::describe_for::possession_of_female'
p2127
aS'possession_of_female::describe_for^-1::@'
p2128
aS'@::describe_for::possession'
p2129
aS'indian::describe_like^-1::@'
p2130
aS'@::describe_like::indian'
p2131
aS'snout::have^-1::@'
p2132
aS'@::have::snout'
p2133
aS'indian_in_dance::describe_like^-1::@'
p2134
aS'@::describe_like::indian_in_dance'
p2135
aS'@::bask_on::bank'
p2136
aS'bank::bask_on^-1::@'
p2137
aS'@::catch_by^-1::hundred_of_thousand'
p2138
aS'hundred_of_thousand::catch_by::@'
p2139
aS'river::abound_in^-1::@'
p2140
aS'@::abound_in::river'
p2141
aS'hundred::catch_by::@'
p2142
aS'@::catch_by^-1::hundred'
p2143
aS'crocodile::differ_from^-1::@'
p2144
aS'@::differ_from::crocodile'
p2145
aS'@::lay_to::root'
p2146
aS'root::lay_to^-1::@'
p2147
aS'@::lay_at::root'
p2148
aS'root::lay_at^-1::@'
p2149
aS'@::lay_unto::root'
p2150
aS'root::lay_unto^-1::@'
p2151
aS'root_of_tree::lay_at^-1::@'
p2152
aS'@::lay_at::root_of_tree'
p2153
aS'@::lay::tree'
p2154
aS'tree::lay^-1::@'
p2155
aS'@::take^-1::lizzie_borden'
p2156
aS'lizzie_borden::take::@'
p2157
aS'borden::take::@'
p2158
aS'@::take^-1::borden'
p2159
aS'executioner::raise::@'
p2160
aS'@::raise^-1::executioner'
p2161
aS'@::lie_at::root_of_tree'
p2162
aS'root_of_tree::lie_at^-1::@'
p2163
aS'@::precipitate^-1::sinking'
p2164
aS'@::precipitate^-1::sinking_of_machinery'
p2165
aS'@::get::tongue'
p2166
aS'tongue::get^-1::@'
p2167
aS'@::be_on::mat'
p2168
aS'mat::be_on^-1::@'
p2169
aS'curiosity::kill::@'
p2170
aS'@::kill^-1::curiosity'
p2171
aS'@::catch::mouse'
p2172
aS'mouse::catch^-1::@'
p2173
aS'@::have::kitten'
p2174
aS'kitten::have^-1::@'
p2175
aS'@::look_at::king'
p2176
aS'king::look_at^-1::@'
p2177
aS'mouse::play_with^-1::@'
p2178
aS'@::play_with::mouse'
p2179
aS'dog::chase::@'
p2180
aS'@::chase^-1::dog'
p2181
aS'@::watch::mouse'
p2182
aS'mouse::watch^-1::@'
p2183
aS'@::breaketh^-1::voice'
p2184
aS'voice::breaketh::@'
p2185
aS'@::be_like^-1::bough'
p2186
aS'bough::be_like::@'
p2187
aS'voice_of_lord::breaketh::@'
p2188
aS'@::breaketh^-1::voice_of_lord'
p2189
aS'lord::breaketh::@'
p2190
aS'@::breaketh^-1::lord'
p2191
aS'fire::devour::@'
p2192
aS'@::devour^-1::fire'
p2193
aS'voice_of_lord::break::@'
p2194
aS'@::break^-1::voice_of_lord'
p2195
aS'voice::break::@'
p2196
aS'@::break^-1::voice'
p2197
aS'ceiling::be_of::@'
p2198
aS'@::be_of^-1::ceiling'
p2199
aS'@::be_of^-1::beam'
p2200
aS'beam::be_of::@'
p2201
aS'@::spurn^-1::indignant'
p2202
aS'indignant::spurn::@'
p2203
aS'@::consist_of::room'
p2204
aS'room::consist_of^-1::@'
p2205
aS'village::consist_of::@'
p2206
aS'@::consist_of^-1::village'
p2207
aS'@::have::kitchen'
p2208
aS'kitchen::have^-1::@'
p2209
aS'stone::build_of^-1::@'
p2210
aS'@::build_of::stone'
p2211
aS'@::be_in^-1::light'
p2212
aS'light::be_in::@'
p2213
aS'@::live_in^-1::mother'
p2214
aS'mother::live_in::@'
p2215
aS'@::leave_as^-1::daughter'
p2216
aS'daughter::leave_as::@'
p2217
aS'@::glitter_amid^-1::sonnet'
p2218
aS'sonnet::glitter_amid::@'
p2219
aS'shadow::grow_in^-1::@'
p2220
aS'@::grow_in::shadow'
p2221
aS'grave::shade^-1::@'
p2222
aS'@::shade::grave'
p2223
aS'@::do_to^-1::rose'
p2224
aS'rose::do_to::@'
p2225
aS'@::share::tyranny'
p2226
aS'tyranny::share^-1::@'
p2227
aS'tragedy::crown_with::@'
p2228
aS'@::crown_with^-1::tragedy'
p2229
aS'breeze::add_to^-1::@'
p2230
aS'@::add_to::breeze'
p2231
aS'fragrance::add^-1::@'
p2232
aS'@::add::fragrance'
p2233
aS'@::be_beneath^-1::grave'
p2234
aS'grave::be_beneath::@'
p2235
aS'@::encircle_with^-1::other_end'
p2236
aS'@::encircle_with^-1::end'
p2237
aS'query::answer::@'
p2238
aS'@::answer^-1::query'
p2239
aS'@::die_like^-1::day'
p2240
aS'day::die_like::@'
p2241
aS'@::spot^-1::atlantic'
p2242
aS'atlantic::spot::@'
p2243
aS'@::tursiops::truncatus'
p2244
aS'truncatus::tursiops^-1::@'
p2245
aS'brain::have^-1::@'
p2246
aS'@::have::brain'
p2247
aS'@::bar::back_of_gold'
p2248
aS'back_of_gold::bar^-1::@'
p2249
aS'@::bar::back'
p2250
aS'back::bar^-1::@'
p2251
aS'ship::follow^-1::@'
p2252
aS'@::follow::ship'
p2253
aS'@::spot^-1::pantropical'
p2254
aS'pantropical::spot::@'
p2255
aS'@::admit_to^-1::patient'
p2256
aS'patient::admit_to::@'
p2257
aS'@::leave^-1::patient'
p2258
aS'patient::leave::@'
p2259
aS'@::discharge_from^-1::patient'
p2260
aS'patient::discharge_from::@'
p2261
aS'@::admit_to^-1::child'
p2262
aS'child::admit_to::@'
p2263
aS'bed::have^-1::@'
p2264
aS'@::have::bed'
p2265
aS'@::enter^-1::patient'
p2266
aS'patient::enter::@'
p2267
aS'@::admit_to^-1::woman'
p2268
aS'woman::admit_to::@'
p2269
aS'man::admit_to::@'
p2270
aS'@::admit_to^-1::man'
p2271
aS'case::admit_to::@'
p2272
aS'@::admit_to^-1::case'
p2273
aS'@::transfer_to^-1::patient'
p2274
aS'patient::transfer_to::@'
p2275
aS'@::throw^-1::fountain'
p2276
aS'fountain::throw::@'
p2277
aS'@::have::velocity'
p2278
aS'velocity::have^-1::@'
p2279
aS'airport::land_at^-1::@'
p2280
aS'@::land_at::airport'
p2281
aS'surface::impinge_on^-1::@'
p2282
aS'@::impinge_on::surface'
p2283
aS'@::strike::plate'
p2284
aS'plate::strike^-1::@'
p2285
aS'@::strike::vane'
p2286
aS'vane::strike^-1::@'
p2287
aS'@::rise_to::height'
p2288
aS'height::rise_to^-1::@'
p2289
aS'droplet::break_into^-1::@'
p2290
aS'@::break_into::droplet'
p2291
aS'@::impinge_on::plate'
p2292
aS'plate::impinge_on^-1::@'
p2293
aS'@::entrain::air'
p2294
aS'air::entrain^-1::@'
p2295
aS'acid::combine_with::@'
p2296
aS'@::combine_with^-1::acid'
p2297
aS'@::add_to::soil'
p2298
aS'soil::add_to^-1::@'
p2299
aS'soil::contain::@'
p2300
aS'@::contain^-1::soil'
p2301
aS'water::add_to^-1::@'
p2302
aS'@::add_to::water'
p2303
aS'@::apply_to::soil'
p2304
aS'soil::apply_to^-1::@'
p2305
aS'acid::combine_with^-1::@'
p2306
aS'@::combine_with::acid'
p2307
aS'@::need^-1::soil'
p2308
aS'soil::need::@'
p2309
aS'soil::be_in::@'
p2310
aS'@::be_in^-1::soil'
p2311
aS'oxalate::precipitate_by^-1::@'
p2312
aS'@::precipitate_by::oxalate'
p2313
aS'@::absorb_by^-1::dioxide'
p2314
aS'dioxide::absorb_by::@'
p2315
aS'hand::wrap_around::@'
p2316
aS'@::wrap_around^-1::hand'
p2317
aS'helen::hold::@'
p2318
aS'@::hold^-1::helen'
p2319
aS'@::drain_by::stranger'
p2320
aS'@::drain_at::pull'
p2321
aS'pull::drain_at^-1::@'
p2322
aS'stranger::drain_by^-1::@'
p2323
aS'@::round^-1::hand'
p2324
aS'hand::round::@'
p2325
aS'cider::take_for::@'
p2326
aS'@::take_for^-1::cider'
p2327
aS'@::take_for^-1::christmas_cider'
p2328
aS'christmas_cider::take_for::@'
p2329
aS'brook::supply::@'
p2330
aS'@::supply^-1::brook'
p2331
aS'grandfather_brook::supply::@'
p2332
aS'@::supply^-1::grandfather_brook'
p2333
aS'cry::do^-1::@'
p2334
aS'@::do::cry'
p2335
aS'moon::do_to^-1::@'
p2336
aS'@::do_to::moon'
p2337
aS'@::fly_at::dusk'
p2338
aS'dusk::fly_at^-1::@'
p2339
aS'@::take::flight'
p2340
aS'flight::take^-1::@'
p2341
aS'@::hoot_in::distance'
p2342
aS'distance::hoot_in^-1::@'
p2343
aS'tree::hoot_in^-1::@'
p2344
aS'@::hoot_in::tree'
p2345
aS'@::begin::flight'
p2346
aS'flight::begin^-1::@'
p2347
aS'@::raise_in^-1::antibody'
p2348
aS'antibody::raise_in::@'
p2349
aS'antiserum::raise_in::@'
p2350
aS'@::raise_in^-1::antiserum'
p2351
aS'@::prepare_in^-1::antiserum'
p2352
aS'antiserum::prepare_in::@'
p2353
aS'@::produce::antibody'
p2354
aS'antibody::produce^-1::@'
p2355
aS'antibody::produce_in::@'
p2356
aS'@::produce_in^-1::antibody'
p2357
aS'@::have::ear'
p2358
aS'ear::have^-1::@'
p2359
aS'@::produce_in^-1::antiserum'
p2360
aS'antiserum::produce_in::@'
p2361
aS'tree::run^-1::@'
p2362
aS'@::run::tree'
p2363
aS'@::hide::nut'
p2364
aS'nut::hide^-1::@'
p2365
aS'@::bury::nut'
p2366
aS'nut::bury^-1::@'
p2367
aS'spade::play^-1::@'
p2368
aS'@::play::spade'
p2369
aS'man::go_round::@'
p2370
aS'@::go_round^-1::man'
p2371
aS'@::leap_to::tree'
p2372
aS'tree::leap_to^-1::@'
p2373
aS'tree::be_on^-1::@'
p2374
aS'@::be_on::tree'
p2375
aS'tree::climb^-1::@'
p2376
aS'@::climb::tree'
p2377
aS'@::eat::nut'
p2378
aS'nut::eat^-1::@'
p2379
aS'nut::drop^-1::@'
p2380
aS'@::drop::nut'
p2381
aS'@::run^-1::tall_mast'
p2382
aS'@::run^-1::mast'
p2383
aS'mast::run::@'
p2384
aS'tall_mast::run::@'
p2385
aS'@::drill::hole'
p2386
aS'hole::drill^-1::@'
p2387
aS'hole::make^-1::@'
p2388
aS'@::make::hole'
p2389
aS'bill::have^-1::@'
p2390
aS'@::have::bill'
p2391
aS'@::spot^-1::lesser'
p2392
aS'lesser::spot::@'
p2393
aS'@::peck::hole'
p2394
aS'hole::peck^-1::@'
p2395
aS'@::stick_around::side_of_tree'
p2396
aS'@::stick_around::side'
p2397
aS'side::stick_around^-1::@'
p2398
aS'side_of_tree::stick_around^-1::@'
p2399
aS'impudent_head::stick^-1::@'
p2400
aS'@::stick::impudent_head'
p2401
aS'sugar::extract_from::@'
p2402
aS'@::extract_from^-1::sugar'
p2403
aS'sugar::make_from::@'
p2404
aS'@::make_from^-1::sugar'
p2405
aS'@::contain::sugar'
p2406
aS'sugar::contain^-1::@'
p2407
aS'virus::yellow^-1::@'
p2408
aS'@::yellow::virus'
p2409
aS'sugar::produce_from::@'
p2410
aS'@::produce_from^-1::sugar'
p2411
aS'@::cut_into::slice'
p2412
aS'slice::cut_into^-1::@'
p2413
aS'@::grow_in::climate'
p2414
aS'climate::grow_in^-1::@'
p2415
aS'world_with_dog::shoot_among::@'
p2416
aS'@::shoot_among^-1::world'
p2417
aS'@::shoot_among^-1::world_with_dog'
p2418
aS'world::shoot_among::@'
p2419
aS'screw::unscrew::@'
p2420
aS'@::unscrew^-1::screw'
p2421
aS'others::twist_like::@'
p2422
aS'@::twist_like^-1::others'
p2423
aS'hair::twist_like::@'
p2424
aS'@::twist_like^-1::hair'
p2425
aS'@::get_in::fourth_rib'
p2426
aS'fourth_rib::get_in^-1::@'
p2427
aS'@::get_in::rib'
p2428
aS'rib::get_in^-1::@'
p2429
aS'tootle::get^-1::@'
p2430
aS'@::get::tootle'
p2431
aS'@::stick_like^-1::shoestring'
p2432
aS'shoestring::stick_like::@'
p2433
aS'boy::come_with::@'
p2434
aS'@::come_with^-1::boy'
p2435
aS'piani::take_with::@'
p2436
aS'@::take_with^-1::piani'
p2437
aS'@::make_for::bad_purpose'
p2438
aS'@::be_in::such_medium'
p2439
aS'@::score_for^-1::symphony'
p2440
aS'symphony::score_for::@'
p2441
aS'@::play^-1::krishna'
p2442
aS'krishna::play::@'
p2443
aS'overture::score_for::@'
p2444
aS'@::score_for^-1::overture'
p2445
aS'score::call_for::@'
p2446
aS'@::call_for^-1::score'
p2447
aS'@::include^-1::instrument'
p2448
aS'instrument::include::@'
p2449
aS'@::score_for^-1::accompaniment'
p2450
aS'accompaniment::score_for::@'
p2451
aS'woe::discover^-1::@'
p2452
aS'@::discover::woe'
p2453
aS'woe_of_lover::discover^-1::@'
p2454
aS'@::discover::woe_of_lover'
p2455
aS'@::eat^-1::snake'
p2456
aS'snake::eat::@'
p2457
aS'@::turn_into^-1::tadpole'
p2458
aS'tadpole::turn_into::@'
p2459
aS'prince::turn_into^-1::@'
p2460
aS'@::turn_into::prince'
p2461
aS'@::have::skin'
p2462
aS'skin::have^-1::@'
p2463
aS'water::jump_into^-1::@'
p2464
aS'@::jump_into::water'
p2465
aS'@::develop_into^-1::tadpole'
p2466
aS'tadpole::develop_into::@'
p2467
aS'pond::croak_in^-1::@'
p2468
aS'@::croak_in::pond'
p2469
aS'@::lay_in::water'
p2470
aS'water::lay_in^-1::@'
p2471
aS'@::croak_in::marsh'
p2472
aS'marsh::croak_in^-1::@'
p2473
aS'gravy::swim_in^-1::@'
p2474
aS'@::swim_in::own_gravy'
p2475
aS'own_gravy::swim_in^-1::@'
p2476
aS'@::swim_in::gravy'
p2477
aS'@::lay::golden_egg'
p2478
aS'golden_egg::lay^-1::@'
p2479
aS'@::walk_over::grave'
p2480
aS'grave::walk_over^-1::@'
p2481
aS'mouthful::eat_at^-1::@'
p2482
aS'@::eat_at::mouthful'
p2483
aS'formation::fly_in^-1::@'
p2484
aS'@::fly_in::formation'
p2485
aS'fox::carry::@'
p2486
aS'@::carry^-1::fox'
p2487
aS'@::spread_upon::tide'
p2488
aS'tide::spread_upon^-1::@'
p2489
aS'@::let_from::school'
p2490
aS'school::let_from^-1::@'
p2491
aS'grey_wing::spread^-1::@'
p2492
aS'@::spread::grey_wing'
p2493
aS'trail::draw_across^-1::@'
p2494
aS'@::draw_across::trail'
p2495
aS'head::hang_by^-1::@'
p2496
aS'@::hang_by::head'
p2497
aS'@::hang_by::own_head'
p2498
aS'own_head::hang_by^-1::@'
p2499
aS'@::catch^-1::mungo'
p2500
aS'mungo::catch::@'
p2501
aS'innumerable_shoal::be_in^-1::@'
p2502
aS'@::be_in::innumerable_shoal'
p2503
aS'shoal::be_in^-1::@'
p2504
aS'@::be_in::shoal'
p2505
aS'@::cure_with::british_salt'
p2506
aS'british_salt::cure_with^-1::@'
p2507
aS'@::be_to^-1::pilchard'
p2508
aS'pilchard::be_to::@'
p2509
aS'@::cure_with::salt'
p2510
aS'salt::cure_with^-1::@'
p2511
aS'@::feed^-1::suppression'
p2512
aS'suppression::feed::@'
p2513
aS'bread::bake_in::@'
p2514
aS'@::bake_in^-1::bread'
p2515
aS'@::dry_in^-1::sample'
p2516
aS'sample::dry_in::@'
p2517
aS'@::cast_into^-1::morrow'
p2518
aS'morrow::cast_into::@'
p2519
aS'@::cast_into^-1::tomorrow'
p2520
aS'tomorrow::cast_into::@'
p2521
aS'bake::uncover_in::@'
p2522
aS'@::uncover_in^-1::bake'
p2523
aS'coke::@::gas'
p2524
aS'grass::throw_into::@'
p2525
aS'@::throw_into^-1::grass'
p2526
aS'grass_of_field::throw_into::@'
p2527
aS'@::throw_into^-1::grass_of_field'
p2528
aS'@::cover_in^-1::bake'
p2529
aS'bake::cover_in::@'
p2530
aS'@::do_in^-1::baking'
p2531
aS'baking::do_in::@'
p2532
aS'pepper::preheat::@'
p2533
aS'raw::eat^-1::@'
p2534
aS'@::eat::raw'
p2535
aS'head::be_like::@'
p2536
aS'@::be_like^-1::head'
p2537
aS'@::fumble_among^-1::hedger'
p2538
aS'hedger::fumble_among::@'
p2539
aS'winter::turnips_de^-1::@'
p2540
aS'@::turnips_de::winter'
p2541
aS'root::mistake_for::@'
p2542
aS'@::mistake_for^-1::root'
p2543
aS'@::pluck_like^-1::tree_at_foot'
p2544
aS'tree_at_foot::pluck_like::@'
p2545
aS'elm_tree::pluck_like::@'
p2546
aS'@::pluck_like^-1::elm_tree'
p2547
aS'tree::pluck_like::@'
p2548
aS'@::pluck_like^-1::tree'
p2549
aS'ill_home::lay_at^-1::@'
p2550
aS'@::lay_at::ill_home'
p2551
aS'@::sit_on^-1::mother'
p2552
aS'mother::sit_on::@'
p2553
aS'woman::sit_on::@'
p2554
aS'@::sit_on^-1::woman'
p2555
aS'room::furnish_with::@'
p2556
aS'@::furnish_with^-1::room'
p2557
aS'@::sit_on^-1::man'
p2558
aS'man::sit_on::@'
p2559
aS'@::sit_on^-1::father'
p2560
aS'father::sit_on::@'
p2561
aS'girl::sit_on::@'
p2562
aS'@::sit_on^-1::girl'
p2563
aS'wife::sit_on::@'
p2564
aS'@::sit_on^-1::wife'
p2565
aS'lady::sit_on::@'
p2566
aS'@::sit_on^-1::lady'
p2567
aS'@::lie_on^-1::mother'
p2568
aS'mother::lie_on::@'
p2569
aS'@::have^-1::living_room'
p2570
aS'living_room::have::@'
p2571
aS'@::give_from^-1::katherine_howard'
p2572
aS'@::give_from^-1::howard'
p2573
aS'katherine_howard::give_from::@'
p2574
aS'howard::give_from::@'
p2575
aS'dress::consist_of^-1::@'
p2576
aS'@::consist_of::dress'
p2577
aS'whole_piece::have^-1::@'
p2578
aS'@::have::whole_piece'
p2579
aS'@::have::few_piece'
p2580
aS'few_piece::have^-1::@'
p2581
aS'forestier::go_to::@'
p2582
aS'@::go_to^-1::forestier'
p2583
aS'contribution::lay_under^-1::@'
p2584
aS'@::lay_under::contribution'
p2585
aS'piece::have^-1::@'
p2586
aS'@::have::piece'
p2587
aS'@::consist_of::suit'
p2588
aS'suit::consist_of^-1::@'
p2589
aS'gala_dress::consist_of^-1::@'
p2590
aS'@::consist_of::gala_dress'
p2591
aS'other_crop::include::@'
p2592
aS'@::include^-1::other_crop'
p2593
aS'@::eat^-1::monkey'
p2594
aS'monkey::eat::@'
p2595
aS'@::grow_for::export'
p2596
aS'export::grow_for^-1::@'
p2597
aS'@::include^-1::food_crop'
p2598
aS'food_crop::include::@'
p2599
aS'@::grow_on::plantation'
p2600
aS'plantation::grow_on^-1::@'
p2601
aS'@::find::pang'
p2602
aS'pang::find^-1::@'
p2603
aS'@::find::great_pang'
p2604
aS'great_pang::find^-1::@'
p2605
aS'@::bite_by^-1::master'
p2606
aS'master::bite_by::@'
p2607
aS'@::have::connection_with_expedition'
p2608
aS'connection_with_expedition::have^-1::@'
p2609
aS'sea::blow_to^-1::@'
p2610
aS'@::blow_to::sea'
p2611
aS'@::feel::great_pang'
p2612
aS'great_pang::feel^-1::@'
p2613
aS'pang::feel^-1::@'
p2614
aS'@::feel::pang'
p2615
aS'connection_into_hill::have^-1::@'
p2616
aS'@::have::connection_into_hill'
p2617
aS'@::give_by^-1::first_variation'
p2618
aS'first_variation::give_by::@'
p2619
aS'expressive_melody::bring_by::@'
p2620
aS'melody::bring_by::@'
p2621
aS'@::bring_by^-1::melody'
p2622
aS'@::bring_by^-1::expressive_melody'
p2623
aS'melody::play_by::@'
p2624
aS'@::play_by^-1::melody'
p2625
aS'variation::give_by::@'
p2626
aS'@::give_by^-1::variation'
p2627
aS'@::bring_by^-1::melody_in_flat'
p2628
aS'melody_in_flat::bring_by::@'
p2629
aS'bach::@::suite'
p2630
aS'@::announce_by^-1::second_theme'
p2631
aS'second_theme::announce_by::@'
p2632
aS'@::transform_for^-1::white_caress'
p2633
aS'woman::grind::@'
p2634
aS'@::grind^-1::woman'
p2635
aS'valley::cover_with::@'
p2636
aS'@::cover_with^-1::valley'
p2637
aS'@::raise^-1::farmer'
p2638
aS'farmer::raise::@'
p2639
aS'@::grind^-1::mill'
p2640
aS'mill::grind::@'
p2641
aS'@::grow_in::field'
p2642
aS'field::grow_in^-1::@'
p2643
aS'@::plant^-1::farmer'
p2644
aS'farmer::plant::@'
p2645
aS'@::grow^-1::indian'
p2646
aS'indian::grow::@'
p2647
aS'@::plant_in::row'
p2648
aS'row::plant_in^-1::@'
p2649
aS'cycle::@::cradle'
p2650
aS'river::cross_by::@'
p2651
aS'@::cross_by^-1::river'
p2652
aS'bridge::replace::@'
p2653
aS'@::replace^-1::bridge'
p2654
aS'charon::@::soul'
p2655
aS'army::cross_at::@'
p2656
aS'@::cross_at^-1::army'
p2657
aS'island::reach_by::@'
p2658
aS'@::reach_by^-1::island'
p2659
aS'@::replace_by::bridge'
p2660
aS'bridge::replace_by^-1::@'
p2661
aS'@::seize_at^-1::brown'
p2662
aS'brown::seize_at::@'
p2663
aS'@::raid^-1::brown'
p2664
aS'brown::raid::@'
p2665
aS'@::capture^-1::jackson'
p2666
aS'jackson::capture::@'
p2667
aS'teaspoon::mince::@'
p2668
aS'@::mince^-1::teaspoon'
p2669
aS'@::mince^-1::clove'
p2670
aS'clove::mince::@'
p2671
aS'@::chop^-1::teaspoon'
p2672
aS'teaspoon::chop::@'
p2673
aS'breath::smell_of::@'
p2674
aS'@::smell_of^-1::breath'
p2675
aS'@::chop^-1::large_onion'
p2676
aS'large_onion::chop::@'
p2677
aS'@::add^-1::oil'
p2678
aS'oil::add::@'
p2679
aS'@::mince::cup'
p2680
aS'cup::mince^-1::@'
p2681
aS'shepherd::divideth_from::@'
p2682
aS'@::divideth_from^-1::shepherd'
p2683
aS'@::separate_from^-1::shepherd'
p2684
aS'shepherd::separate_from::@'
p2685
aS'sheep::separate_from::@'
p2686
aS'@::separate_from^-1::sheep'
p2687
aS'iniquity::bear^-1::@'
p2688
aS'@::bear::iniquity'
p2689
aS'@::cast_upon^-1::aaron'
p2690
aS'aaron::cast_upon::@'
p2691
aS'@::have::horn_between_eye'
p2692
aS'horn_between_eye::have^-1::@'
p2693
aS'aaron::bring::@'
p2694
aS'@::bring^-1::aaron'
p2695
aS'first_shot::kill::@'
p2696
aS'@::kill^-1::first_shot'
p2697
aS'inhabitant::be_as::@'
p2698
aS'@::be_as^-1::inhabitant'
p2699
aS'@::be_in::grass'
p2700
aS'grass::be_in^-1::@'
p2701
aS'crop::destroy^-1::@'
p2702
aS'@::destroy::crop'
p2703
aS'@::be_like^-1::inhabitant'
p2704
aS'inhabitant::be_like::@'
p2705
aS'keep::do^-1::@'
p2706
aS'@::do::keep'
p2707
aS'@::destroy_by^-1::crop'
p2708
aS'crop::destroy_by::@'
p2709
aS'@::be_in::tall_grass'
p2710
aS'tall_grass::be_in^-1::@'
p2711
aS'@::be_as^-1::king_of_earth'
p2712
aS'king_of_earth::be_as::@'
p2713
aS'king_before_god::be_as::@'
p2714
aS'@::be_as^-1::king_before_god'
p2715
aS'inhabitant_of_earth::be_as::@'
p2716
aS'@::be_as^-1::inhabitant_of_earth'
p2717
aS'wing::burst_upon^-1::@'
p2718
aS'@::burst_upon::wing'
p2719
aS'@::include^-1::bird'
p2720
aS'bird::include::@'
p2721
aS"ambergris::drench'd_with^-1::@"
p2722
aS"@::drench'd_with::ambergris"
p2723
aS'game_bird::include::@'
p2724
aS'@::include^-1::game_bird'
p2725
aS'footboy::eat::@'
p2726
aS'@::eat^-1::footboy'
p2727
aS'sportsman::cry::@'
p2728
aS'@::cry^-1::sportsman'
p2729
aS'miss_williams::place_with^-1::@'
p2730
aS'williams::place_with^-1::@'
p2731
aS'@::place_with::williams'
p2732
aS'@::place_with::miss_williams'
p2733
aS'rich_plumage::lay_about^-1::@'
p2734
aS'plumage::lay_about^-1::@'
p2735
aS'@::lay_about::plumage'
p2736
aS'@::lay_about::rich_plumage'
p2737
aS'cup::crush::@'
p2738
aS'@::crush^-1::cup'
p2739
aS'@::put^-1::someone'
p2740
aS'someone::put::@'
p2741
aS'@::contain::enzyme'
p2742
aS'enzyme::contain^-1::@'
p2743
aS'@::contain::bromelain'
p2744
aS'bromelain::contain^-1::@'
p2745
aS'@::can^-1::slice'
p2746
aS'slice::can::@'
p2747
aS'ounce::crush::@'
p2748
aS'@::crush^-1::ounce'
p2749
aS'barbara::snatch::@'
p2750
aS'@::snatch^-1::barbara'
p2751
aS'@::snatch^-1::dame_barbara'
p2752
aS'dame_barbara::snatch::@'
p2753
aS'head::cover_with::@'
p2754
aS'@::cover_with^-1::head'
p2755
aS'@::wrap_around::neck'
p2756
aS'neck::wrap_around^-1::@'
p2757
aS'@::wrap_in^-1::head'
p2758
aS'head::wrap_in::@'
p2759
aS'torrid_zone::send_from^-1::@'
p2760
aS'@::send_from::torrid_zone'
p2761
aS'@::send_from::zone'
p2762
aS'zone::send_from^-1::@'
p2763
aS'hair::tie_with::@'
p2764
aS'@::tie_with^-1::hair'
p2765
aS'neck::tie_around^-1::@'
p2766
aS'@::tie_around::neck'
p2767
aS'hair::tie_in::@'
p2768
aS'@::tie_in^-1::hair'
p2769
aS'@::stop_at::station'
p2770
aS'station::stop_at^-1::@'
p2771
aS'@::pull_into::station'
p2772
aS'station::pull_into^-1::@'
p2773
aS'@::leave::station'
p2774
aS'station::leave^-1::@'
p2775
aS'@::run_on::time'
p2776
aS'time::run_on^-1::@'
p2777
aS'@::arrive_at::station'
p2778
aS'station::arrive_at^-1::@'
p2779
aS'time::be_on^-1::@'
p2780
aS'@::be_on::time'
p2781
aS'speed::gather^-1::@'
p2782
aS'@::gather::speed'
p2783
aS'@::hang_with::snow'
p2784
aS'snow::hang_with^-1::@'
p2785
aS'bloom::hang_with^-1::@'
p2786
aS'@::hang_with::bloom'
p2787
aS'bloom_along_bough::hang_with^-1::@'
p2788
aS'@::hang_with::bloom_along_bough'
p2789
aS'cup::maraschino::@'
p2790
aS'@::maraschino^-1::cup'
p2791
aS'cup::pit::@'
p2792
aS'@::pit^-1::cup'
p2793
aS'lip::be_like::@'
p2794
aS'@::be_like^-1::lip'
p2795
aS'@::shake_in::orchard'
p2796
aS'orchard::shake_in^-1::@'
p2797
aS'patient::lie_on::@'
p2798
aS'@::lie_on^-1::patient'
p2799
aS'patient::recline_on::@'
p2800
aS'@::recline_on^-1::patient'
p2801
aS'complaint::ease^-1::@'
p2802
aS'@::ease::complaint'
p2803
aS'@::come_near^-1::sleep'
p2804
aS'sleep::come_near::@'
p2805
aS'@::sit_on^-1::mom'
p2806
aS'mom::sit_on::@'
p2807
aS'hungary::do_in^-1::@'
p2808
aS'@::do_in::hungary'
p2809
aS'plane::shoot_by::@'
p2810
aS'@::shoot_by^-1::plane'
p2811
aS'@::shoot_by^-1::aircraft'
p2812
aS'aircraft::shoot_by::@'
p2813
aS'aircraft::shoot^-1::@'
p2814
aS'@::shoot::aircraft'
p2815
aS'plane::shoot^-1::@'
p2816
aS'@::shoot::plane'
p2817
aS'air_force::have::@'
p2818
aS'@::have^-1::air_force'
p2819
aS'@::escort::bomber'
p2820
aS'bomber::escort^-1::@'
p2821
aS'@::escort_by^-1::bomber'
p2822
aS'bomber::escort_by::@'
p2823
aS'@::attack_by^-1::plane'
p2824
aS'plane::attack_by::@'
p2825
aS'@::shoot_by^-1::bomber'
p2826
aS'bomber::shoot_by::@'
p2827
aS'@::make_before^-1::finger'
p2828
aS'finger::make_before::@'
p2829
aS'bear::leave_at::@'
p2830
aS'@::leave_at^-1::bear'
p2831
aS'vibration::set_in^-1::@'
p2832
aS'@::set_in::vibration'
p2833
aS'word::@::lightning'
p2834
aS'@::make::vibration'
p2835
aS'vibration::make^-1::@'
p2836
aS'nest::place_in::@'
p2837
aS'@::place_in^-1::nest'
p2838
aS'@::hear_in::ear'
p2839
aS'ear::hear_in^-1::@'
p2840
aS'new::@::time'
p2841
aS'@::be_in::unison'
p2842
aS'unison::be_in^-1::@'
p2843
aS'box::mount_on^-1::@'
p2844
aS'@::mount_on::box'
p2845
aS'@::have::frequency'
p2846
aS'frequency::have^-1::@'
p2847
aS'squadron::consist_of::@'
p2848
aS'@::consist_of^-1::squadron'
p2849
aS'@::make::sail'
p2850
aS'sail::make^-1::@'
p2851
aS'signal::make^-1::@'
p2852
aS'@::make::signal'
p2853
aS'gun::carry^-1::@'
p2854
aS'@::carry::gun'
p2855
aS'@::levy_on::commerce'
p2856
aS'commerce::levy_on^-1::@'
p2857
aS'@::build^-1::cayley'
p2858
aS'cayley::build::@'
p2859
aS'@::build^-1::brother'
p2860
aS'brother::build::@'
p2861
aS'@::fly_as::kite'
p2862
aS'kite::fly_as^-1::@'
p2863
aS'george_cayley::build::@'
p2864
aS'@::build^-1::george_cayley'
p2865
aS'glide_ratio::have^-1::@'
p2866
aS'@::have::glide_ratio'
p2867
aS'@::build^-1::pilcher'
p2868
aS'pilcher::build::@'
p2869
aS'lilienthal::fly::@'
p2870
aS'@::fly^-1::lilienthal'
p2871
aS'@::build^-1::sir_cayley'
p2872
aS'sir_cayley::build::@'
p2873
aS'@::build^-1::wright'
p2874
aS'wright::build::@'
p2875
aS'straw::eat^-1::@'
p2876
aS'@::eat::straw'
p2877
aS'@::eat_like::ox'
p2878
aS'ox::eat_like^-1::@'
p2879
aS'@::lie_with::lamb'
p2880
aS'lamb::lie_with^-1::@'
p2881
aS'devil::prowl_like::@'
p2882
aS'@::prowl_like^-1::devil'
p2883
aS'lack::do^-1::@'
p2884
aS'@::do::lack'
p2885
aS'@::prowl_like^-1::enemy'
p2886
aS'enemy::prowl_like::@'
p2887
aS'march::come_like::@'
p2888
aS'@::come_like^-1::march'
p2889
aS'soul::be_among::@'
p2890
aS'@::be_among^-1::soul'
p2891
aS'man::flee_from::@'
p2892
aS'@::flee_from^-1::man'
p2893
aS'mane::have^-1::@'
p2894
aS'@::have::mane'
p2895
aS'@::catch::barrel'
p2896
aS'barrel::catch^-1::@'
p2897
aS'@::love::wind'
p2898
aS'wind::love^-1::@'
p2899
aS'@::extemporize^-1::bolivia'
p2900
aS'bolivia::extemporize::@'
p2901
aS'@::turn::fin'
p2902
aS'fin::turn^-1::@'
p2903
aS'@::split_like^-1::moment'
p2904
aS'moment::split_like::@'
p2905
aS'@::catch_in::number'
p2906
aS'number::catch_in^-1::@'
p2907
aS'@::beat_in::deep_pool'
p2908
aS'@::beat_in::pool'
p2909
aS'@::beat_in::pool_of_water'
p2910
aS'pool::beat_in^-1::@'
p2911
aS'deep_pool::beat_in^-1::@'
p2912
aS'pool_of_water::beat_in^-1::@'
p2913
aS'@::have::shepherd'
p2914
aS'shepherd::have^-1::@'
p2915
aS'@::divideth^-1::shepherd'
p2916
aS'shepherd::divideth::@'
p2917
aS'@::giveth_for^-1::shepherd'
p2918
aS'shepherd::giveth_for::@'
p2919
aS'good_shepherd::giveth_for::@'
p2920
aS'@::giveth_for^-1::good_shepherd'
p2921
aS'@::know::voice'
p2922
aS'voice::know^-1::@'
p2923
aS'@::separate^-1::shepherd'
p2924
aS'shepherd::separate::@'
p2925
aS'@::know^-1::shepherd'
p2926
aS'shepherd::know::@'
p2927
aS'behold::send_as::@'
p2928
aS'@::send_as^-1::behold'
p2929
aS'@::have::wool'
p2930
aS'wool::have^-1::@'
p2931
aS'@::separate_from::goat'
p2932
aS'goat::separate_from^-1::@'
p2933
aS'@::carry::oil'
p2934
aS'oil::carry^-1::@'
p2935
aS'oil::ship_by::@'
p2936
aS'@::ship_by^-1::oil'
p2937
aS'oil::transport_by::@'
p2938
aS'@::transport_by^-1::oil'
p2939
aS'@::have::double_hull'
p2940
aS'double_hull::have^-1::@'
p2941
aS'@::have::hull'
p2942
aS'hull::have^-1::@'
p2943
aS'oil::pump_into::@'
p2944
aS'@::pump_into^-1::oil'
p2945
aS'said::afford_to::@'
p2946
aS'@::afford_to^-1::said'
p2947
aS'@::carry::ton'
p2948
aS'ton::carry^-1::@'
p2949
aS'@::proceed_en::route'
p2950
aS'route::proceed_en^-1::@'
p2951
aS'@::load_into^-1::oil'
p2952
aS'oil::load_into::@'
p2953
aS'hospital::take_to^-1::@'
p2954
aS'@::take_to::hospital'
p2955
aS'@::call^-1::someone'
p2956
aS'someone::call::@'
p2957
aS'@::rush_to::hospital'
p2958
aS'hospital::rush_to^-1::@'
p2959
aS'somebody::call::@'
p2960
aS'@::call^-1::somebody'
p2961
aS'@::arrive_at::hospital'
p2962
aS'hospital::arrive_at^-1::@'
p2963
aS'@::be_in::minute'
p2964
aS'minute::be_in^-1::@'
p2965
aS'minute::arrive_within^-1::@'
p2966
aS'@::arrive_within::minute'
p2967
aS'@::speed_to::hospital'
p2968
aS'hospital::speed_to^-1::@'
p2969
aS'patient::bring_by::@'
p2970
aS'@::bring_by^-1::patient'
p2971
aS'@::bring_by^-1::man'
p2972
aS'man::bring_by::@'
p2973
aS'excel::display::@'
p2974
aS'@::display^-1::excel'
p2975
aS'@::show::appears'
p2976
aS'appears::show^-1::@'
p2977
aS'@::open^-1::button'
p2978
aS'button::open::@'
p2979
aS'autocad::display::@'
p2980
aS'@::display^-1::autocad'
p2981
aS'@::display^-1::window'
p2982
aS'window::display::@'
p2983
aS'@::appear_on::screen'
p2984
aS'screen::appear_on^-1::@'
p2985
aS'tab::have^-1::@'
p2986
aS'@::have::tab'
p2987
aS'close::close::@'
p2988
aS'@::close^-1::close'
p2989
aS'@::open^-1::photoshop'
p2990
aS'photoshop::open::@'
p2991
aS'@::display^-1::button'
p2992
aS'button::display::@'
p2993
aS'speaker::take::@'
p2994
aS'@::take^-1::speaker'
p2995
aS'@::sit_in^-1::man'
p2996
aS'man::sit_in::@'
p2997
aS'speaker::leave::@'
p2998
aS'@::leave^-1::speaker'
p2999
aS'@::sit_in^-1::woman'
p3000
aS'woman::sit_in::@'
p3001
aS'patient::sit_in::@'
p3002
aS'@::sit_in^-1::patient'
p3003
aS'@::sit_in^-1::mother'
p3004
aS'mother::sit_in::@'
p3005
aS'father::sit_in::@'
p3006
aS'@::sit_in^-1::father'
p3007
aS'@::hear::none'
p3008
aS'none::hear^-1::@'
p3009
aS'half::rise_from::@'
p3010
aS'@::rise_from^-1::half'
p3011
aS'patient::seat_in::@'
p3012
aS'@::seat_in^-1::patient'
p3013
aS'cup::flake::@'
p3014
aS'@::flake^-1::cup'
p3015
aS'@::grate^-1::cup'
p3016
aS'cup::grate::@'
p3017
aS'cup::sweeten::@'
p3018
aS'@::sweeten^-1::cup'
p3019
aS'tablespoon::shred::@'
p3020
aS'@::shred^-1::tablespoon'
p3021
aS'@::unsweetened^-1::cup'
p3022
aS'cup::unsweetened::@'
p3023
aS'@::include^-1::other_product'
p3024
aS'other_product::include::@'
p3025
aS'tablespoon::grate::@'
p3026
aS'@::grate^-1::tablespoon'
p3027
aS'long_neck::have^-1::@'
p3028
aS'@::have::long_neck'
p3029
aS'@::get::neck'
p3030
aS'neck::get^-1::@'
p3031
aS'neck::stretch^-1::@'
p3032
aS'@::stretch::neck'
p3033
aS'@::develop::neck'
p3034
aS'neck::develop^-1::@'
p3035
aS'@::swell_to^-1::stripe'
p3036
aS'stripe::swell_to::@'
p3037
aS'long_neck::get^-1::@'
p3038
aS'@::get::long_neck'
p3039
aS'@::develop::long_neck'
p3040
aS'long_neck::develop^-1::@'
p3041
aS'@::acquire::neck'
p3042
aS'neck::acquire^-1::@'
p3043
aS'long_neck::acquire^-1::@'
p3044
aS'@::acquire::long_neck'
p3045
aS'limit::confine_upon::@'
p3046
aS'narrow_limit::confine_upon::@'
p3047
aS'@::confine_upon^-1::narrow_limit'
p3048
aS'@::confine_upon^-1::limit'
p3049
aS'vocal::::@'
p3050
aS'@::^-1::vocal'
p3051
aS'@::sing_to^-1::girl'
p3052
aS'girl::sing_to::@'
p3053
aS'sophy::take::@'
p3054
aS'@::take^-1::sophy'
p3055
aS'@::strum^-1::someone'
p3056
aS'someone::strum::@'
p3057
aS'@::consist_of^-1::armament'
p3058
aS'armament::consist_of::@'
p3059
aS'@::get^-1::annie'
p3060
aS'annie::get::@'
p3061
aS'@::fire::round'
p3062
aS'round::fire^-1::@'
p3063
aS'ship::carry::@'
p3064
aS'@::carry^-1::ship'
p3065
aS'shell::fire^-1::@'
p3066
aS'@::fire::shell'
p3067
aS'salute::fire^-1::@'
p3068
aS'@::fire::salute'
p3069
aS'action::come_into^-1::@'
p3070
aS'@::come_into::action'
p3071
aS'shot::fire^-1::@'
p3072
aS'@::fire::shot'
p3073
aS'@::::cover'
p3074
aS'cover::^-1::@'
p3075
aS'water::circulate_through::@'
p3076
aS'@::circulate_through^-1::water'
p3077
aS'@::tweed^-1::harris'
p3078
aS'harris::tweed::@'
p3079
aS'uniform::consist_of::@'
p3080
aS'@::consist_of^-1::uniform'
p3081
aS'men::require_for^-1::@'
p3082
aS'@::require_for::men'
p3083
aS'pocket::have^-1::@'
p3084
aS'@::have::pocket'
p3085
aS'butt::end_of::@'
p3086
aS'@::end_of^-1::butt'
p3087
aS'soldier::fire::@'
p3088
aS'@::fire^-1::soldier'
p3089
aS'@::shoot_upon::arm'
p3090
aS'arm::shoot_upon^-1::@'
p3091
aS'soldier::discharge::@'
p3092
aS'@::discharge^-1::soldier'
p3093
aS'@::shoulder^-1::man'
p3094
aS'man::shoulder::@'
p3095
aS'@::come_over^-1::voice'
p3096
aS'voice::come_over::@'
p3097
aS'@::play::music'
p3098
aS'music::play^-1::@'
p3099
aS'@::tune_to::station'
p3100
aS'station::tune_to^-1::@'
p3101
aS'news::come_over::@'
p3102
aS'@::come_over^-1::news'
p3103
aS'people::listen_to::@'
p3104
aS'@::listen_to^-1::people'
p3105
aS'@::play::song'
p3106
aS'song::play^-1::@'
p3107
aS'life::crackle_to^-1::@'
p3108
aS'@::crackle_to::life'
p3109
aS'call::come_over::@'
p3110
aS'@::come_over^-1::call'
p3111
aS'music::play_on::@'
p3112
aS'@::play_on^-1::music'
p3113
aS'@::play_on^-1::song'
p3114
aS'song::play_on::@'
p3115
aS'river::ascend^-1::@'
p3116
aS'@::ascend::river'
p3117
aS'river::be_in^-1::@'
p3118
aS'@::be_in::river'
p3119
aS'river::abound_with::@'
p3120
aS'@::abound_with^-1::river'
p3121
aS'@::enter::river'
p3122
aS'river::enter^-1::@'
p3123
aS'@::catch_in::river'
p3124
aS'river::catch_in^-1::@'
p3125
aS'river::return_to^-1::@'
p3126
aS'@::return_to::river'
p3127
aS'river::abound_in::@'
p3128
aS'@::abound_in^-1::river'
p3129
aS'river::run^-1::@'
p3130
aS'@::run::river'
p3131
aS'@::open_at::neck'
p3132
aS'neck::open_at^-1::@'
p3133
aS'back::stick_to^-1::@'
p3134
aS'@::stick_to::back'
p3135
aS'sweat::soak_with^-1::@'
p3136
aS'@::soak_with::sweat'
p3137
aS'@::open_at::throat'
p3138
aS'throat::open_at^-1::@'
p3139
aS'collar::open_at^-1::@'
p3140
aS'@::open_at::collar'
p3141
aS'@::come_with^-1::clerk'
p3142
aS'clerk::come_with::@'
p3143
aS'something::hit^-1::@'
p3144
aS'@::hit::something'
p3145
aS'mass::turn_with::@'
p3146
aS'@::turn_with^-1::mass'
p3147
aS'men::@::dirt'
p3148
aS'fireman::@::coal'
p3149
aS'@::seize^-1::tongs'
p3150
aS'tongs::seize::@'
p3151
aS'amorous_tongs::seize::@'
p3152
aS'@::seize^-1::amorous_tongs'
p3153
aS'@::load_by^-1::ore'
p3154
aS'ore::load_by::@'
p3155
aS'huck::drop::@'
p3156
aS'lean::fill::@'
p3157
aS'@::fill^-1::lean'
p3158
aS'@::drop^-1::huck'
p3159
aS'water::pack_in^-1::@'
p3160
aS'@::pack_in::water'
p3161
aS'oil::pack_in^-1::@'
p3162
aS'@::pack_in::oil'
p3163
aS'@::can_in::water'
p3164
aS'water::can_in^-1::@'
p3165
aS'@::can^-1::ounce'
p3166
aS'ounce::can::@'
p3167
aS'@::include^-1::catch'
p3168
aS'catch::include::@'
p3169
aS'ocean::be_in^-1::@'
p3170
aS'@::be_in::ocean'
p3171
aS'@::skipjack^-1::analysis_of_ventilation'
p3172
aS'analysis_of_ventilation::skipjack::@'
p3173
aS'analysis::skipjack::@'
p3174
aS'@::skipjack^-1::analysis'
p3175
aS'jonah::swallow^-1::@'
p3176
aS'@::swallow::jonah'
p3177
aS'jonah::swallow_by::@'
p3178
aS'@::swallow_by^-1::jonah'
p3179
aS'jonah::swallow::@'
p3180
aS'@::swallow^-1::jonah'
p3181
aS'@::talk_like^-1::fish'
p3182
aS'fish::talk_like::@'
p3183
aS'@::talk_like^-1::little_fish'
p3184
aS'little_fish::talk_like::@'
p3185
aS'@::mean^-1::whale'
p3186
aS'whale::mean::@'
p3187
aS'@::mean::whale'
p3188
aS'whale::mean^-1::@'
p3189
aS'@::have::fin'
p3190
aS'fin::have^-1::@'
p3191
aS'@::come_to::surface'
p3192
aS'surface::come_to^-1::@'
p3193
aS'@::leave^-1::cannon'
p3194
aS'cannon::leave::@'
p3195
aS'cannon::leave^-1::@'
p3196
aS'@::leave::cannon'
p3197
aS'front::leave_in^-1::@'
p3198
aS'@::leave_in::front'
p3199
aS'salute::boom^-1::@'
p3200
aS'@::boom::salute'
p3201
aS'corpse::fire_over^-1::@'
p3202
aS'@::fire_over::corpse'
p3203
aS'time::fire^-1::@'
p3204
aS'@::fire::time'
p3205
aS'@::mount_on::wall'
p3206
aS'wall::mount_on^-1::@'
p3207
aS'@::cease_to::roar'
p3208
aS'roar::cease_to^-1::@'
p3209
aS'@::preach_in^-1::sermon'
p3210
aS'sermon::preach_in::@'
p3211
aS'@::hold_in^-1::service'
p3212
aS'service::hold_in::@'
p3213
aS'deum::sing_in::@'
p3214
aS'@::sing_in^-1::deum'
p3215
aS'te_deum::sing_in::@'
p3216
aS'@::sing_in^-1::te_deum'
p3217
aS'site::stand_on^-1::@'
p3218
aS'@::stand_on::site'
p3219
aS'service::hold_at::@'
p3220
aS'@::hold_at^-1::service'
p3221
aS'@::take_in^-1::ceremony'
p3222
aS'ceremony::take_in::@'
p3223
aS'shoulder::hang_from^-1::@'
p3224
aS'@::hang_from::shoulder'
p3225
aS'@::divide^-1::martin'
p3226
aS'martin::divide::@'
p3227
aS'shoulder::throw_over^-1::@'
p3228
aS'@::throw_over::shoulder'
p3229
aS'@::wrap_in^-1::man'
p3230
aS'man::wrap_in::@'
p3231
aS'@::fell_from::shoulder'
p3232
aS'shoulder::fell_from^-1::@'
p3233
aS'figure::envelop_in::@'
p3234
aS'@::envelop_in^-1::figure'
p3235
aS'@::seize_in^-1::bravo'
p3236
aS'bravo::seize_in::@'
p3237
aS'@::fall_from::shoulder'
p3238
aS'shoulder::fall_from^-1::@'
p3239
aS'shoulder::slip_from^-1::@'
p3240
aS'@::slip_from::shoulder'
p3241
aS'@::wrap_in^-1::body'
p3242
aS'body::wrap_in::@'
p3243
aS'@::descend_like^-1::spirit'
p3244
aS'spirit::descend_like::@'
p3245
aS'@::descend_like^-1::spirit_of_god'
p3246
aS'spirit_of_god::descend_like::@'
p3247
aS'noah::send::@'
p3248
aS'@::send^-1::noah'
p3249
aS'@::descend_as^-1::spirit'
p3250
aS'spirit::descend_as::@'
p3251
aS'@::find::rest'
p3252
aS'rest::find^-1::@'
p3253
aS'evening::come_in^-1::@'
p3254
aS'@::come_in::evening'
p3255
aS'@::take::thing'
p3256
aS'thing::take^-1::@'
p3257
aS'@::descend_like^-1::holy_spirit'
p3258
aS'holy_spirit::descend_like::@'
p3259
aS'@::float_to^-1::ditty'
p3260
aS'ditty::float_to::@'
p3261
aS'@::be_like^-1::eye'
p3262
aS'eye::be_like::@'
p3263
aS'@::have::tusk'
p3264
aS'tusk::have^-1::@'
p3265
aS'@::be_like::wall'
p3266
aS'wall::be_like^-1::@'
p3267
aS'rope::be_like^-1::@'
p3268
aS'@::be_like::rope'
p3269
aS'@::use::trunk'
p3270
aS'trunk::use^-1::@'
p3271
aS'@::be_like::snake'
p3272
aS'snake::be_like^-1::@'
p3273
aS'tree::be_like^-1::@'
p3274
aS'@::be_like::tree'
p3275
aS'trunk::have^-1::@'
p3276
aS'@::have::trunk'
p3277
aS'@::raise::trunk'
p3278
aS'trunk::raise^-1::@'
p3279
aS'trunk::get^-1::@'
p3280
aS'@::get::trunk'
p3281
aS'@::wear^-1::nurse'
p3282
aS'nurse::wear::@'
p3283
aS'hand::encase_in::@'
p3284
aS'@::encase_in^-1::hand'
p3285
aS'hand::protect^-1::@'
p3286
aS'@::protect::hand'
p3287
aS'@::cover_with^-1::hand'
p3288
aS'hand::cover_with::@'
p3289
aS'operator::wear::@'
p3290
aS'@::wear^-1::operator'
p3291
aS'hand::protect_by::@'
p3292
aS'@::protect_by^-1::hand'
p3293
aS'time::wear_at^-1::@'
p3294
aS'@::wear_at::time'
p3295
aS'@::wear^-1::worker'
p3296
aS'worker::wear::@'
p3297
aS'hand::fit^-1::@'
p3298
aS'@::fit::hand'
p3299
aS'@::wear^-1::person'
p3300
aS'person::wear::@'
p3301
aS'@::capture::peacock'
p3302
aS'peacock::capture^-1::@'
p3303
aS'balloon::live_in^-1::@'
p3304
aS'@::live_in::balloon'
p3305
aS'@::capture::penguin'
p3306
aS'penguin::capture^-1::@'
p3307
aS'@::sink::peacock'
p3308
aS'peacock::sink^-1::@'
p3309
aS'@::capture::brig_penguin'
p3310
aS'brig_penguin::capture^-1::@'
p3311
aS'@::build_from::maple'
p3312
aS'@::capture::british_peacock'
p3313
aS'british_peacock::capture^-1::@'
p3314
aS'maple::build_from^-1::@'
p3315
aS'@::receive::shot_in_hull'
p3316
aS'shot_in_hull::receive^-1::@'
p3317
aS'lord::send::@'
p3318
aS'@::send^-1::lord'
p3319
aS'pie::square_among^-1::@'
p3320
aS'@::square_among::pie'
p3321
aS'@::pile^-1::boy'
p3322
aS'boy::pile::@'
p3323
aS'@::dry^-1::prune'
p3324
aS'prune::dry::@'
p3325
aS'poem::survive^-1::@'
p3326
aS'@::survive::poem'
p3327
aS'@::be_like^-1::fruit'
p3328
aS'fruit::be_like::@'
p3329
aS'@::grow_on::thistle'
p3330
aS'thistle::grow_on^-1::@'
p3331
aS'pound::@::tomato'
p3332
aS'@::hit^-1::feller'
p3333
aS'feller::hit::@'
p3334
aS'@::drop^-1::shell'
p3335
aS'house::lishing^-1::@'
p3336
aS'@::lishing::house'
p3337
aS'co.::lishing^-1::@'
p3338
aS'@::lishing::co.'
p3339
aS'someone::take_to::@'
p3340
aS'@::take_to^-1::someone'
p3341
aS'@::11linois^-1::central'
p3342
aS'central::11linois::@'
p3343
aS'music::have^-1::@'
p3344
aS'@::have::music'
p3345
aS'de::re::@'
p3346
aS'@::re^-1::de'
p3347
aS'@::have::bar'
p3348
aS'bar::have^-1::@'
p3349
aS'@::copyright_by^-1::content'
p3350
aS'content::copyright_by::@'
p3351
aS'people::go_to::@'
p3352
aS'@::go_to^-1::people'
p3353
aS'star::throw::@'
p3354
aS'@::throw^-1::star'
p3355
aS'ground::stick_in^-1::@'
p3356
aS'@::stick_in::ground'
p3357
aS'side::pierce^-1::@'
p3358
aS'@::pierce::side'
p3359
aS'weapon::consist_of::@'
p3360
aS'@::consist_of^-1::weapon'
p3361
aS'@::throw^-1::man'
p3362
aS'man::throw::@'
p3363
aS'sword::hold::@'
p3364
aS'@::hold^-1::sword'
p3365
aS'@::pierce_with^-1::soldier'
p3366
aS'soldier::pierce_with::@'
p3367
aS'warrior::carry::@'
p3368
aS'@::carry^-1::warrior'
p3369
aS'remus::saw::@'
p3370
aS'@::saw^-1::remus'
p3371
aS'heart::feed_upon^-1::@'
p3372
aS'@::feed_upon::heart'
p3373
aS'bone::pick^-1::@'
p3374
aS'@::pick::bone'
p3375
aS'@::give_to::lamb'
p3376
aS'lamb::give_to^-1::@'
p3377
aS'wide_wing::spread^-1::@'
p3378
aS'@::spread::wide_wing'
p3379
aS'@::flock_to::sepulchre'
p3380
aS'sepulchre::flock_to^-1::@'
p3381
aS'@::pick_by^-1::bone'
p3382
aS'bone::pick_by::@'
p3383
aS'@::do^-1::eagle'
p3384
aS'eagle::do::@'
p3385
aS'@::repose_on::nail'
p3386
aS'nail::repose_on^-1::@'
p3387
aS'throne::repose_behind^-1::@'
p3388
aS'@::repose_behind::throne'
p3389
aS'fine_doublet::wear_by::@'
p3390
aS'@::wear_by^-1::fine_doublet'
p3391
aS'doublet::wear_by::@'
p3392
aS'@::wear_by^-1::doublet'
p3393
aS'@::wear_by^-1::doublet_of_satin'
p3394
aS'doublet_of_satin::wear_by::@'
p3395
aS'bark::have^-1::@'
p3396
aS'@::have::bark'
p3397
aS'nail_behind_throne::repose_on^-1::@'
p3398
aS'@::repose_on::nail_behind_throne'
p3399
aS'marsh::set_among::@'
p3400
aS'@::set_among^-1::marsh'
p3401
aS'@::set_among^-1::green_marsh'
p3402
aS'green_marsh::set_among::@'
p3403
aS'tassel::hang^-1::@'
p3404
aS'@::hang::tassel'
p3405
aS'dog::jump_over^-1::@'
p3406
aS'@::jump_over::dog'
p3407
aS'@::jump_over::lazy_dog'
p3408
aS'lazy_dog::jump_over^-1::@'
p3409
aS'poultry::catch^-1::@'
p3410
aS'@::catch::poultry'
p3411
aS'many_thing::know^-1::@'
p3412
aS'@::know::many_thing'
p3413
aS'@::know::thing'
p3414
aS'thing::know^-1::@'
p3415
aS'@::have::den'
p3416
aS'den::have^-1::@'
p3417
aS'@::eat::rabbit'
p3418
aS'rabbit::eat^-1::@'
p3419
aS'@::find^-1::hound'
p3420
aS'hound::find::@'
p3421
aS'prophet::be_like::@'
p3422
aS'@::be_like^-1::prophet'
p3423
aS'restaurant::have^-1::@'
p3424
aS'@::have::restaurant'
p3425
aS'@::have::pool'
p3426
aS'pool::have^-1::@'
p3427
aS'room::offer^-1::@'
p3428
aS'@::offer::room'
p3429
aS'@::hold_at^-1::banquet'
p3430
aS'banquet::hold_at::@'
p3431
aS'@::offer::accommodation'
p3432
aS'accommodation::offer^-1::@'
p3433
aS'@::add::charge'
p3434
aS'charge::add^-1::@'
p3435
aS'@::add::service_charge'
p3436
aS'service_charge::add^-1::@'
p3437
aS'@::have::swimming_pool'
p3438
aS'swimming_pool::have^-1::@'
p3439
aS'@::be_under::construction'
p3440
aS'construction::be_under^-1::@'
p3441
aS'@::chop^-1::tbsp'
p3442
aS'tbsp::chop::@'
p3443
aS'@::snip^-1::tablespoon'
p3444
aS'tablespoon::snip::@'
p3445
aS't.::chop::@'
p3446
aS'@::chop^-1::t.'
p3447
aS'tablespoon::dry::@'
p3448
aS'@::dry^-1::tablespoon'
p3449
aS'@::be_in::pocket'
p3450
aS'pocket::be_in^-1::@'
p3451
aS'@::arm_with^-1::man'
p3452
aS'man::arm_with::@'
p3453
aS'@::fire_from^-1::bullet'
p3454
aS'bullet::fire_from::@'
p3455
aS'@::draw^-1::police'
p3456
aS'police::draw::@'
p3457
aS'officer::carry::@'
p3458
aS'@::carry^-1::officer'
p3459
aS'side::set^-1::@'
p3460
aS'@::set::side'
p3461
aS'depth::base::@'
p3462
aS'@::base^-1::depth'
p3463
aS'depth_from_edge::base::@'
p3464
aS'@::base^-1::depth_from_edge'
p3465
aS'music::blare_from::@'
p3466
aS'@::blare_from^-1::music'
p3467
aS'film::be_in::@'
p3468
aS'@::be_in^-1::film'
p3469
aS'@::come_from^-1::music'
p3470
aS'music::come_from::@'
p3471
aS'choice::favor::@'
p3472
aS'@::favor^-1::choice'
p3473
aS'@::dangle_in::front'
p3474
aS'front::dangle_in^-1::@'
p3475
aS'@::slice^-1::onion'
p3476
aS'onion::slice::@'
p3477
aS'see_better::make^-1::@'
p3478
aS'@::make::see_better'
p3479
aS'@::point_at::heart'
p3480
aS'heart::point_at^-1::@'
p3481
aS'@::shoot^-1::eye'
p3482
aS'eye::shoot::@'
p3483
aS'@::smile_at^-1::soul'
p3484
aS'soul::smile_at::@'
p3485
aS'@::see^-1::macbeth'
p3486
aS'macbeth::see::@'
p3487
aS'heart::pierce^-1::@'
p3488
aS'@::pierce::heart'
p3489
aS'@::follow_by^-1::exact_relationship'
p3490
aS'exact_relationship::follow_by::@'
p3491
aS'relationship::follow_by::@'
p3492
aS'@::follow_by^-1::relationship'
p3493
aS'sable_carpet::drop_upon^-1::@'
p3494
aS'@::drop_upon::sable_carpet'
p3495
aS'@::drop_upon::carpet'
p3496
aS'carpet::drop_upon^-1::@'
p3497
aS'men::gather::@'
p3498
aS'@::gather^-1::men'
p3499
aS'@::eat^-1::father'
p3500
aS'father::eat::@'
p3501
aS'wine::make_from::@'
p3502
aS'@::make_from^-1::wine'
p3503
aS'@::have^-1::vine'
p3504
aS'vine::have::@'
p3505
aS'@::make::wine'
p3506
aS'wine::make^-1::@'
p3507
aS'@::hang_in::cluster'
p3508
aS'cluster::hang_in^-1::@'
p3509
aS'@::make_of^-1::wine'
p3510
aS'wine::make_of::@'
p3511
aS'@::produce::wine'
p3512
aS'wine::produce^-1::@'
p3513
aS'wine::produce_from::@'
p3514
aS'@::produce_from^-1::wine'
p3515
aS'white_wine::make_from::@'
p3516
aS'@::make_from^-1::white_wine'
p3517
aS'@::cut::charcoal'
p3518
aS'charcoal::cut^-1::@'
p3519
aS'side_of_log::cut_from^-1::@'
p3520
aS'@::cut_from::side_of_log'
p3521
aS'next_time::prepare_with::@'
p3522
aS'@::prepare_with^-1::next_time'
p3523
aS'@::prepare_with^-1::time'
p3524
aS'time::prepare_with::@'
p3525
aS'@::cut_from::side'
p3526
aS'side::cut_from^-1::@'
p3527
aS'british_father::give::@'
p3528
aS'@::give^-1::british_father'
p3529
aS'@::take^-1::indian'
p3530
aS'indian::take::@'
p3531
aS'war::give::@'
p3532
aS'@::give^-1::war'
p3533
aS'@::strike_with^-1::black_wizard'
p3534
aS'black_wizard::strike_with::@'
p3535
aS'english::dig::@'
p3536
aS'@::dig^-1::english'
p3537
aS'@::take::fright'
p3538
aS'fright::take^-1::@'
p3539
aS'@::win::race'
p3540
aS'race::win^-1::@'
p3541
aS'way::pick^-1::@'
p3542
aS'@::pick::way'
p3543
aS'@::draw_by^-1::carriage'
p3544
aS'carriage::draw_by::@'
p3545
aS'@::mount^-1::men'
p3546
aS'men::mount::@'
p3547
aS'@::draw_by^-1::chariot'
p3548
aS'chariot::draw_by::@'
p3549
aS'indian::steal::@'
p3550
aS'@::steal^-1::indian'
p3551
aS'@::whip^-1::driver'
p3552
aS'driver::whip::@'
p3553
aS'@::prick::ear'
p3554
aS'ear::prick^-1::@'
p3555
aS'car::draw_by::@'
p3556
aS'@::draw_by^-1::car'
p3557
aS'nothing::supply_to::@'
p3558
aS'@::supply_to^-1::nothing'
p3559
aS'@::ripen_in::season'
p3560
aS'season::ripen_in^-1::@'
p3561
aS'@::attack^-1::disease'
p3562
aS'disease::attack::@'
p3563
aS'@::destroy^-1::snail'
p3564
aS'snail::destroy::@'
p3565
aS'cheek::be_like::@'
p3566
aS'@::be_like^-1::cheek'
p3567
aS'england_climate::naturalize_in^-1::@'
p3568
aS'@::naturalize_in::england_climate'
p3569
aS'quince::graft_on^-1::@'
p3570
aS'@::graft_on::quince'
p3571
aS'new_climate::naturalize_in^-1::@'
p3572
aS'@::naturalize_in::new_climate'
p3573
aS'climate::naturalize_in^-1::@'
p3574
aS'@::naturalize_in::climate'
p3575
aS'branch::bend_beneath::@'
p3576
aS'@::bend_beneath^-1::branch'
p3577
aS'men::remind_of::@'
p3578
aS'@::remind_of^-1::men'
p3579
aS'more_time::cost^-1::@'
p3580
aS'@::cost::more_time'
p3581
aS'@::shape_like^-1::uterus'
p3582
aS'uterus::shape_like::@'
p3583
aS'@::appear_from::description'
p3584
aS'description::appear_from^-1::@'
p3585
a.