(lp1
S'guard_in'
p2
aS'flavour_with'
p3
aS'empty_on'
p4
aS'lie_about'
p5
aS'group_with^-1'
p6
aS'wear_over^-1'
p7
aS'handle_of^-1'
p8
aS'park_to'
p9
aS'warm_in'
p10
aS'clink_around^-1'
p11
aS'diminish_within^-1'
p12
aS'steep^-1'
p13
aS'steam_in^-1'
p14
aS'line_on'
p15
aS'spread_at'
p16
aS'dangle_near'
p17
aS'daub_upon^-1'
p18
aS'fail_to'
p19
aS'shred^-1'
p20
aS'curl_into'
p21
aS'bristle_with^-1'
p22
aS'fire_than'
p23
aS'victual_within'
p24
aS'besiege_for'
p25
aS'rise_of^-1'
p26
aS'ram_into^-1'
p27
aS'rip_under'
p28
aS'sling_over'
p29
aS'weigh_upon'
p30
aS'clasp_under^-1'
p31
aS'drape_over'
p32
aS'fold_over'
p33
aS'fold_across^-1'
p34
aS'lose_into'
p35
aS'quarter_with'
p36
aS'button_into^-1'
p37
aS'dangle_from'
p38
aS'pinch_under'
p39
aS'fold_over^-1'
p40
aS'double_as'
p41
aS'grate^-1'
p42
aS'coconut'
p43
aS'build_like'
p44
aS'prophesy_of'
p45
aS'shake_against^-1'
p46
aS'embroider_on^-1'
p47
aS'draw_under'
p48
aS'embroider_with'
p49
aS'conceal_under'
p50
aS'rustle_in'
p51
aS'deck_as^-1'
p52
aS'fit_without'
p53
aS'contribute_with'
p54
aS'tear_at'
p55
aS'look_around'
p56
aS'stain_to'
p57
aS'unbutton_at'
p58
aS'button_to'
p59
aS'fasten_at'
p60
aS'loosen_about'
p61
aS'hang_above^-1'
p62
aS'espy'
p63
aS'loathe'
p64
aS'chain_by'
p65
aS'rear_on'
p66
aS'pass_round'
p67
aS'exchange_at^-1'
p68
aS'yell^-1'
p69
aS'prevail_during'
p70
aS'swing_at'
p71
aS'swing_to'
p72
aS'rid_at'
p73
aS'cat^-1'
p74
aS'mince'
p75
aS'crop_at'
p76
aS'pounce_on^-1'
p77
aS'replace_for'
p78
aS'gallop_like'
p79
aS'shake_from'
p80
aS'adorn_like^-1'
p81
aS'groom_with'
p82
aS'felt_upon'
p83
aS'come_below'
p84
aS'rope^-1'
p85
aS'rope_after^-1'
p86
aS'corral_for^-1'
p87
aS'shoe_as'
p88
aS'shoe_with'
p89
aS'lame^-1'
p90
aS'shoe^-1'
p91
aS'run_without^-1'
p92
aS'hack_into'
p93
aS'squeeze_for'
p94
aS'ice^-1'
p95
aS'rind'
p96
aS'chain_in^-1'
p97
aS'overturn_upon'
p98
aS'house_on'
p99
aS'accommodate_on'
p100
aS'bleat_from^-1'
p101
aS'end_of^-1'
p102
aS'overmatched_by^-1'
p103
aS'stir_on^-1'
p104
aS'shorn_of'
p105
aS'spread_as^-1'
p106
aS'flutter_from^-1'
p107
aS'rustle_on^-1'
p108
aS'swing_through^-1'
p109
aS'lob'
p110
aS'slice^-1'
p111
aS'ring_on^-1'
p112
aS'mince^-1'
p113
aS'halve^-1'
p114
aS'lay_about'
p115
aS'talk_into^-1'
p116
aS'speak_into^-1'
p117
aS'dial^-1'
p118
aS'talk_on^-1'
p119
aS'rip^-1'
p120
aS'tell_over^-1'
p121
aS'instruct_over^-1'
p122
aS'say_into^-1'
p123
aS'shout_into^-1'
p124
aS'yell_into^-1'
p125
aS'scream_into^-1'
p126
aS'say_over^-1'
p127
aS'slam_down^-1'
p128
aS'slam^-1'
p129
aS'play_to^-1'
p130
aS'fire_through^-1'
p131
aS'become_among'
p132
aS'mash^-1'
p133
aS'hunt_for'
p134
aS'pop_like^-1'
p135
aS'power^-1'
p136
aS'power_by'
p137
aS'convert_from'
p138
aS'post_outside^-1'
p139
aS'serve_from'
p140
aS'dig_with^-1'
p141
aS'improvise'
p142
aS'patrol_with^-1'
p143
aS'flit_with^-1'
p144
aS'perch_upon'
p145
aS'hit_over'
p146
aS'cock_like^-1'
p147
aS'apologise_for'
p148
aS'complicate_for^-1'
p149
aS'flutter_over'
p150
aS'insert_with^-1'
p151
aS'tighten_with^-1'
p152
aS'instal_with^-1'
p153
aS'hang_before'
p154
aS'expire_under'
p155
aS'strain_after^-1'
p156
aS'fold_under'
p157
aS'follow_like^-1'
p158
aS'crowd_about'
p159
aS'wear_without^-1'
p160
aS'soak_under'
p161
aS'wear_under'
p162
aS'stick_like^-1'
p163
aS'swim_toward'
p164
aS'group_about'
p165
aS'face_across'
p166
aS'arrange_around'
p167
aS'roll_to^-1'
p168
aS'group_around'
p169
aS'draw_near^-1'
p170
aS'flank^-1'
p171
aS'recline^-1'
p172
aS'dash_to'
p173
aS'scramble_to'
p174
aS'twitter_before'
p175
aS'fly_around'
p176
aS'hang_beside^-1'
p177
aS'thrust_with'
p178
aS"grasp'd^-1"
p179
aS'value_above'
p180
aS'submerge_in'
p181
aS'clink_in'
p182
aS'tinkle_against'
p183
aS'tap_on'
p184
aS'clink_against'
p185
aS'slumber_in'
p186
aS'outwear'
p187
aS'glue_to'
p188
aS'flash_from'
p189
aS'rasp_from'
p190
aS'rust_in'
p191
aS'rattle_in'
p192
aS'slide_from'
p193
aS'twitch_from'
p194
aS'cost_as^-1'
p195
aS'ship_by^-1'
p196
aS'lurch_into'
p197
aS'shift_into'
p198
aS'stew_like^-1'
p199
aS'prey_on'
p200
aS'buzz_around'
p201
aS'buzz_about'
p202
aS'employ_off'
p203
aS'seat_upon'
p204
aS'cement_to'
p205
aS'prey_by^-1'
p206
aS'bask_like'
p207
aS'foam_at'
p208
aS'wait_outside'
p209
aS'roll_to'
p210
aS'back_to'
p211
aS'unload_at'
p212
aS'sound_at'
p213
aS'rotten_at'
p214
aS'pick_with'
p215
aS'stew^-1'
p216
aS'hew_through'
p217
aS'lower_from'
p218
aS'detect_under'
p219
aS'deposit_between'
p220
aS'pile_with'
p221
aS'crumple_than^-1'
p222
aS'pull_off^-1'
p223
aS'remake_with'
p224
aS'unroll_across^-1'
p225
aS'place_across^-1'
p226
aS'fix_over^-1'
p227
aS'strip_from^-1'
p228
aS'replace_on^-1'
p229
aS'fetch_from^-1'
p230
aS'push_against^-1'
p231
aS'label_for^-1'
p232
aS'wash_into^-1'
p233
aS'empty_of'
p234
aS'serve_from^-1'
p235
aS'eat_from^-1'
p236
aS'decorate_on'
p237
aS'slip_on'
p238
aS'steam_from^-1'
p239
aS'ladle_into^-1'
p240
aS'carve_from'
p241
aS'fashion_from'
p242
aS'label_for'
p243
aS'hand_among'
p244
aS'flock_round^-1'
p245
aS'rattle^-1'
p246
aS'appear_around'
p247
aS'paste_on^-1'
p248
aS'slap_upon^-1'
p249
aS'affix_to^-1'
p250
aS'shut_against'
p251
aS'have_inside'
p252
aS'loom_like^-1'
p253
aS'throw_except^-1'
p254
aS'stretch_between'
p255
aS'discard_from^-1'
p256
aS'shelter_by'
p257
aS'dice^-1'
p258
aS'signify_with'
p259
aS'rest_against^-1'
p260
aS'push_near'
p261
aS'cram_into^-1'
p262
aS'place_beside'
p263
aS'range_among'
p264
aS'upholster'
p265
aS'self_on^-1'
p266
aS'upholster_with'
p267
aS'feel_after'
p268
aS'self_in^-1'
p269
aS'split_with^-1'
p270
aS'square_with^-1'
p271
aS'wear_to'
p272
aS'button_over'
p273
aS'wear_over'
p274
aS'wear_under^-1'
p275
aS'bundle_with'
p276
aS'twist_like^-1'
p277
aS'materialize_in^-1'
p278
aS'dedicate_as'
p279
aS'cut_like'
p280
aS'wind_round'
p281
aS'speed_of^-1'
p282
aS'thin_by'
p283
aS'get_round'
p284
aS'jump_over'
p285
aS'feel_before'
p286
aS'jump_over^-1'
p287
aS'feed_like^-1'
p288
aS'bleed'
p289
aS'course^-1'
p290
aS'chase_by^-1'
p291
aS'bear_like'
p292
aS'spring_at^-1'
p293
aS'sleep_like'
p294
aS'hunt_with'
p295
aS'eat_except^-1'
p296
aS'plunge_between'
p297
aS'approve_among'
p298
aS'sez'
p299
aS'strike_en^-1'
p300
aS'think_among'
p301
aS'sez^-1'
p302
aS'rush_before'
p303
aS'play_before^-1'
p304
aS'hop_as^-1'
p305
aS'slaughter_for'
p306
aS'stare_like^-1'
p307
aS'nibble'
p308
aS'rear_for'
p309
aS'breed_for'
p310
aS'beseech'
p311
aS'fling_round^-1'
p312
aS'clutch_against'
p313
aS'flap_in'
p314
aS'split_in'
p315
aS'bob_in'
p316
aS'pin_in'
p317
aS'brush_from^-1'
p318
aS'band_like^-1'
p319
aS'come_in.'
p320
aS'improvise_in^-1'
p321
aS'capitalize_as^-1'
p322
aS'button_by'
p323
aS'button_with'
p324
aS'trim_with'
p325
aS'bury_to'
p326
aS'snap_at'
p327
aS'plunge_to'
p328
aS'near_as'
p329
aS'hover_about^-1'
p330
aS'crowd_by'
p331
aS'partake_in^-1'
p332
aS'grab_by'
p333
aS'lash_with'
p334
aS'brush_with'
p335
aS'flick'
p336
aS'slink_with'
p337
aS'roar_to'
p338
aS'squirt'
p339
aS'hum_like'
p340
aS'spread_include^-1'
p341
aS'shoot_upon'
p342
aS'invert_under'
p343
aS'shake_like'
p344
aS'stamp_upon'
p345
aS'glance_among^-1'
p346
aS'pair_like^-1'
p347
aS'duel^-1'
p348
aS'stew'
p349
aS'pitch_like^-1'
p350
aS'steal_upon^-1'
p351
aS'ornament_by'
p352
aS'fringe_by'
p353
aS'hood^-1'
p354
aS'soil^-1'
p355
aS'trample'
p356
aS'graze_with'
p357
aS'trace_near'
p358
aS'butt_with'
p359
aS'pluck_like^-1'
p360
aS'roll_under'
p361
aS'stick_from^-1'
p362
aS'befit^-1'
p363
aS'stain_under'
p364
aS'cross_over^-1'
p365
aS'slit_down'
p366
aS'wear_outside'
p367
aS'pull_over'
p368
aS'bag_above'
p369
aS'fade^-1'
p370
aS'tuck_underneath'
p371
aS'gallowsed_over^-1'
p372
aS'tuck_into'
p373
aS'hang_outside'
p374
aS'tuck_inside'
p375
aS'whiten'
p376
aS'hop_at'
p377
aS'use_like^-1'
p378
aS'cook_as^-1'
p379
aS'boil_as^-1'
p380
aS'eat_like^-1'
p381
aS'cook_like^-1'
p382
aS'boil_like^-1'
p383
aS'eat_as^-1'
p384
aS'inquire_by^-1'
p385
aS'swoop_upon^-1'
p386
aS'betake_to'
p387
aS'term_as'
p388
aS'proscribe^-1'
p389
aS"be_'^-1"
p390
aS'employ_than^-1'
p391
aS'gleam_among'
p392
aS'broadcast_by'
p393
aS'overtake_by^-1'
p394
aS'awe_by'
p395
aS'glare_with'
p396
aS'do_than^-1'
p397
aS'park_in'
p398
aS'crash^-1'
p399
aS'detonate^-1'
p400
aS'slam_on'
p401
aS'total_include^-1'
p402
aS'load_to^-1'
p403
aS'load_onto^-1'
p404
aS'help_into^-1'
p405
aS'designate_for^-1'
p406
aS'park^-1'
p407
aS'staff^-1'
p408
aS'fee_upon'
p409
aS'persecute'
p410
aS'lay_near'
p411
aS'cleave_with^-1'
p412
aS'fell_beneath^-1'
p413
aS'flourish_above'
p414
aS'chop_by^-1'
p415
aS'crash_upon'
p416
aS'split_by^-1'
p417
aS'suspend_over'
p418
aS'chop_with^-1'
p419
aS'sever_with^-1'
p420
aS'fall_beneath^-1'
p421
aS'lop_after'
p422
aS'describe_about'
p423
aS'flourish_over'
p424
aS'lift_over'
p425
aS'lop'
p426
aS'stricken_by^-1'
p427
aS'recoil_on'
p428
aS'poise_above'
p429
aS'raise_over'
p430
aS'shorten_by'
p431
aS'crush_with^-1'
p432
aS'fly_about'
p433
aS'mark_from'
p434
aS'raise_like^-1'
p435
aS'thin'
p436
aS'fall_before^-1'
p437
aS'smooth_with^-1'
p438
aS'hew_down'
p439
aS'bite_into'
p440
aS'undisturbed_by^-1'
p441
aS'underlie_by^-1'
p442
aS'butt_at'
p443
aS'catapult_to'
p444
aS'embroider_in'
p445
aS'fit_like^-1'
p446
aS'escort_by'
p447
aS'intercept_by'
p448
aS'fly_above^-1'
p449
aS'dive^-1'
p450
aS'fly_by'
p451
aS'carry_round'
p452
aS'knock_off^-1'
p453
aS'immerse_to'
p454
aS'hang_around'
p455
aS'rotate_from'
p456
aS'reconstruct_into^-1'
p457
aS'end_from^-1'
p458
aS'come_except'
p459
aS'light_to'
p460
aS'crowd_to'
p461
aS'pack_to'
p462
aS'visit_from'
p463
aS'pray_in^-1'
p464
aS'ordain_in^-1'
p465
aS'sit_between^-1'
p466
aS'draw_beside'
p467
aS'scrub_with^-1'
p468
aS'put_around'
p469
aS'come_round'
p470
aS'tuck_under'
p471
aS'embroider'
p472
aS'set_about'
p473
aS'place_round'
p474
aS'replace_at'
p475
aS'arrange_round'
p476
aS'fix_around'
p477
aS'stand_about'
p478
aS'range_about'
p479
aS'stand_around'
p480
aS'form_around'
p481
aS'round_to'
p482
aS'draw_round'
p483
aS'stand_round'
p484
aS'place_about'
p485
aS'sit_around'
p486
aS'push_under'
p487
aS'range_round'
p488
aS'pull_around'
p489
aS'set_round'
p490
aS'set_around'
p491
aS'space_around'
p492
aS'stack_on'
p493
aS'scrap_from'
p494
aS'push_from'
p495
aS'draw_around'
p496
aS'stare_across'
p497
aS'dominate_with^-1'
p498
aS'set_beside'
p499
aS'smash_over'
p500
aS'rack_upon'
p501
aS'rock_by'
p502
aS'pile_upon'
p503
aS'stack_with^-1'
p504
aS'arrange_behind'
p505
aS'talk_like^-1'
p506
aS'cluster_around'
p507
aS'be_alongside'
p508
aS'upend_on'
p509
aS'group_round'
p510
aS'scatter_around'
p511
aS'push_against'
p512
aS'line_around'
p513
aS'provide_around'
p514
aS'range_around'
p515
aS'position_around'
p516
aS'place_behind'
p517
aS'separate_with^-1'
p518
aS'hide_beneath'
p519
aS'have_down'
p520
aS'button_up'
p521
aS'line_in'
p522
aS'button_in'
p523
aS'part_in'
p524
aS'fit_like'
p525
aS'shin_like^-1'
p526
aS'outfly'
p527
aS'drop_upon'
p528
aS'bathe'
p529
aS'shed_from'
p530
aS'swing_on'
p531
aS'wire^-1'
p532
aS'lift_on'
p533
aS'foot_for'
p534
aS'crumple'
p535
aS'resemble_with'
p536
aS'splash^-1'
p537
aS'ally_to^-1'
p538
aS'return_upon^-1'
p539
aS'impersonate^-1'
p540
aS'drink_from'
p541
aS'excavate'
p542
aS'strafe_by^-1'
p543
aS'tune^-1'
p544
aS'come_alongside^-1'
p545
aS'absorb_through'
p546
aS'breathe_through'
p547
aS'slaughter^-1'
p548
aS'outstretched_like^-1'
p549
aS'drip_from'
p550
aS'grow_after^-1'
p551
aS'get_off'
p552
aS'wheel_on'
p553
aS'flieth_with'
p554
aS'pursue_upon'
p555
aS'hover_with'
p556
aS'pause_on'
p557
aS'balance_on'
p558
aS'pilot^-1'
p559
aS'balance_like'
p560
aS'pick_like'
p561
aS'leave_about'
p562
aS'neck^-1'
p563
aS'bask_like^-1'
p564
aS'regenerate'
p565
aS'wiggle'
p566
aS'regrow'
p567
aS'deploy_in'
p568
aS'whiz_over'
p569
aS'flutter_by'
p570
aS'flutter_round'
p571
aS'tremble_to'
p572
aS'holm^-1'
p573
aS'value_as'
p574
aS'prey_upon^-1'
p575
aS'black_with'
p576
aS'coo_on'
p577
aS'manufacture_from^-1'
p578
aS'contain_besides'
p579
aS'scrap_from^-1'
p580
aS'outlast^-1'
p581
aS'overtake_by'
p582
aS'broadcast_by^-1'
p583
aS'clatter_to'
p584
aS'fling_to'
p585
aS'project_on'
p586
aS'reveal_for^-1'
p587
aS'depend_from'
p588
aS'drape_around'
p589
aS'tear_on'
p590
aS'throw_about'
p591
aS'fasten_over'
p592
aS"redden_o'er"
p593
aS'droop_from'
p594
aS'hang_off'
p595
aS'slip_off'
p596
aS'draw_about'
p597
aS'float_from'
p598
aS'clutch_to'
p599
aS'sing_from'
p600
aS'speckle'
p601
aS'protrude'
p602
aS'waver_like^-1'
p603
aS'sting_with'
p604
aS'smell_with'
p605
aS'pierce_like^-1'
p606
aS'peer_with'
p607
aS'spit_in'
p608
aS'outrival'
p609
aS'goose^-1'
p610
aS'mate_with'
p611
aS'wear_outside^-1'
p612
aS'air_on^-1'
p613
aS'broadcast_on^-1'
p614
aS'shrink_to'
p615
aS'tame'
p616
aS'fiend^-1'
p617
aS'abound^-1'
p618
aS'lake^-1'
p619
aS'load_on^-1'
p620
aS'seal_from'
p621
aS'pull_behind'
p622
aS'trade_on^-1'
p623
aS'attach_with^-1'
p624
aS'honk'
p625
aS'stretch_by'
p626
aS'cover_from'
p627
aS'crash_through'
p628
aS'go_past'
p629
aS'circle_with'
p630
aS'fan_with'
p631
aS'soar_with'
p632
aS'wrapt_in'
p633
aS'dart_after^-1'
p634
aS'toothed^-1'
p635
aS'see_near^-1'
p636
aS'droop'
p637
aS'denude_of'
p638
aS'fade_on^-1'
p639
aS'open_without'
p640
aS'plant_by'
p641
aS'use_than^-1'
p642
aS'fasten_in'
p643
aS'splash_into^-1'
p644
aS'siphon_from^-1'
p645
aS'trickle_into^-1'
p646
aS'hollow_like^-1'
p647
aS'bubble_in^-1'
p648
aS'rinse_with'
p649
aS'flush_by'
p650
aS'measure_into^-1'
p651
aS'sift_into^-1'
p652
aS'froth_in^-1'
p653
aS'warm_with'
p654
aS'dispense_into^-1'
p655
aS'spurt_into^-1'
p656
aS'drip_into^-1'
p657
aS'prompt_for'
p658
aS'label_on'
p659
aS'salad^-1'
p660
aS'green^-1'
p661
aS'claim_over^-1'
p662
aS'cast_of'
p663
aS'disgorge'
p664
aS'lose_than'
p665
aS'encompass_by'
p666
aS'ring_into^-1'
p667
aS'toll_from^-1'
p668
aS'chime_in^-1'
p669
aS'ring_from^-1'
p670
aS'cluster_unlike^-1'
p671
aS'place_below^-1'
p672
aS'sit_behind'
p673
aS'come_off'
p674
aS'tear_off'
p675
aS'strip_from'
p676
aS'split_down'
p677
aS'tear_down'
p678
aS'button_on'
p679
aS'wrinkle_across'
p680
aS'bristle_along'
p681
aS'drape_across'
p682
aS"'s_off"
p683
aS'burn_off'
p684
aS'slit_up'
p685
aS'drop_off'
p686
aS'have_across'
p687
aS'wrench_from^-1'
p688
aS'cut_off^-1'
p689
aS'slash_with'
p690
aS'button_except'
p691
aS'bore_for'
p692
aS'set_after'
p693
aS'burnish'
p694
aS'peel_for^-1'
p695
aS'woo_with'
p696
aS"woo'd_with"
p697
aS'depart_to^-1'
p698
aS'stack_in^-1'
p699
aS'see_near'
p700
aS'toothed'
p701
aS'fell_near'
p702
aS'turn_round'
p703
aS'taint^-1'
p704
aS'comprise_except^-1'
p705
aS'maltreat'
p706
aS'vanquish'
p707
aS'hurt_from'
p708
aS'jostle_into'
p709
aS'sustain_upon'
p710
aS'flip'
p711
aS'balance_like^-1'
p712
aS'pick_like^-1'
p713
aS'shape_with^-1'
p714
aS'brim^-1'
p715
aS'shin_like'
p716
aS'button^-1'
p717
aS'hang_beside'
p718
aS'get_among'
p719
aS'devour_by'
p720
aS'run_among^-1'
p721
aS'spring_upon^-1'
p722
aS'elevate_by^-1'
p723
aS'cling_by'
p724
aS'plough_with'
p725
aS'untie'
p726
aS'flirt'
p727
aS'brace_like^-1'
p728
aS'switch_with'
p729
aS'furbish_with'
p730
aS'swish'
p731
aS'whisk'
p732
aS'trot_with'
p733
aS'tender_at^-1'
p734
aS'pad^-1'
p735
aS'resemble_with^-1'
p736
aS'cut_like^-1'
p737
aS'insert_with'
p738
aS'bevel_with^-1'
p739
aS'sharpen_to'
p740
aS'trim_with^-1'
p741
aS'excise_with^-1'
p742
aS'freshen_with^-1'
p743
aS'round_with^-1'
p744
aS'insert_around'
p745
aS'grind_to'
p746
aS'scrap_with^-1'
p747
aS'insert_from'
p748
aS'place_across'
p749
aS'par_with^-1'
p750
aS'sharpen_with^-1'
p751
aS'taper_with^-1'
p752
aS'slit_with^-1'
p753
aS'tap_upon'
p754
aS'ease_with^-1'
p755
aS'set_between^-1'
p756
aS'rattle_on'
p757
aS'clatter_onto'
p758
aS'lacerate_with^-1'
p759
aS'graze_against'
p760
aS'clatter_against'
p761
aS'clatter_on'
p762
aS'rest_across'
p763
aS'rattle_against'
p764
aS'scrap_against'
p765
aS'flavour_with^-1'
p766
aS'romaine^-1'
p767
aS'tie_like^-1'
p768
aS'consign_like^-1'
p769
aS'retu^-1'
p770
aS'bequeath_to^-1'
p771
aS'number_throughout^-1'
p772
aS'copy_for^-1'
p773
aS'stack_with'
p774
aS'purge_of'
p775
aS'borrow_through^-1'
p776
aS'furnifhed_with'
p777
aS'return_t^-1'
p778
aS'ret^-1'
p779
aS'returnee^-1'
p780
aS'ban_by^-1'
p781
aS'return_i^-1'
p782
aS'shelve'
p783
aS'return_toj^-1'
p784
aS'returne^-1'
p785
aS'be_retur^-1'
p786
aS'lend_from^-1'
p787
aS'catalogue_in^-1'
p788
aS'stock_in^-1'
p789
aS'return_tc^-1'
p790
aS'entire^-1'
p791
aS'contain_over'
p792
aS'remember_from^-1'
p793
aS'scatter_among^-1'
p794
aS'donate_to^-1'
p795
aS'catalogue_by^-1'
p796
aS'contain_from'
p797
aS'bind_as^-1'
p798
aS'borrow_by^-1'
p799
aS'lend_by^-1'
p800
aS'survive_from^-1'
p801
aS'specialise_in'
p802
aS'reserve_from^-1'
p803
aS'check_from^-1'
p804
aS'ban_in^-1'
p805
aS'demand_at^-1'
p806
aS'belong_from^-1'
p807
aS'loan_by^-1'
p808
aS'be_returm^-1'
p809
aS'augment_with'
p810
aS'collate'
p811
aS'ransack_for'
p812
aS'furnish_from^-1'
p813
aS'institute_of'
p814
aS'disperse_among^-1'
p815
aS'have_include'
p816
aS'reti^-1'
p817
aS'request_for'
p818
aS'lend_through^-1'
p819
aS'circulate_outside^-1'
p820
aS'catalogue_at^-1'
p821
aS'return_lo^-1'
p822
aS'be_returnei^-1'
p823
aS'suitable_for^-1'
p824
aS'arrange_throughout^-1'
p825
aS'transplant_from^-1'
p826
aS'returi^-1'
p827
aS'bulge_with'
p828
aS'brew_at^-1'
p829
aS'be_returr^-1'
p830
aS'retui^-1'
p831
aS'rett^-1'
p832
aS'treasure_in^-1'
p833
aS'loan_from^-1'
p834
aS'return_ti^-1'
p835
aS'shelve_in^-1'
p836
aS'cram_with'
p837
aS'loan_to^-1'
p838
aS'ban_from^-1'
p839
aS'procure_for^-1'
p840
aS'circulate_by^-1'
p841
aS'lend_between^-1'
p842
aS'have_besides'
p843
aS'mss_in^-1'
p844
aS'respect_by^-1'
p845
aS'procure_at^-1'
p846
aS'mss^-1'
p847
aS'authorize_in'
p848
aS'exist_throughout'
p849
aS'follow_like'
p850
aS'fawn_like'
p851
aS'keep_like^-1'
p852
aS'spring_like^-1'
p853
aS'unkennel^-1'
p854
aS'beat_before^-1'
p855
aS'train_with^-1'
p856
aS'spring_at'
p857
aS'sink_like^-1'
p858
aS'fiddle_with'
p859
aS'leap_upon'
p860
aS'put_between'
p861
aS'rear_upon'
p862
aS'fling_on'
p863
aS'bend_like'
p864
aS'color_like'
p865
aS'grow_after'
p866
aS'swarm_like'
p867
aS'peck_by^-1'
p868
aS'seed^-1'
p869
aS'bore_like'
p870
aS'click_in'
p871
aS'sprout_from'
p872
aS'rot_under'
p873
aS'chamber_for'
p874
aS'tighten_on^-1'
p875
aS'handle_of'
p876
aS'propel'
p877
aS'thrust_in'
p878
aS'leap_with'
p879
aS'thrushes_with'
p880
aS'lave'
p881
aS'toothed_like^-1'
p882
aS'notch_like^-1'
p883
aS'be_o'
p884
aS'suck_down'
p885
aS'prey_upon'
p886
aS'feed_upon'
p887
aS'rehearse_to'
p888
aS'eject'
p889
aS'spit'
p890
aS'come_off^-1'
p891
aS'upholster_in'
p892
aS'develope_into^-1'
p893
aS'emit_from'
p894
aS'wrest'
p895
aS'interview_on^-1'
p896
aS'dig_on^-1'
p897
aS'watch_on^-1'
p898
aS'bite_by^-1'
p899
aS'caress_with'
p900
aS"destroy'd_by"
p901
aS'arrive_as'
p902
aS'succor'
p903
aS'gain_before^-1'
p904
aS'outmarch'
p905
aS'fall_behind^-1'
p906
aS'trade_on'
p907
aS'pull_behind^-1'
p908
aS'pluck_by^-1'
p909
aS'fasten_like^-1'
p910
aS'destroy_like^-1'
p911
aS'gnaw'
p912
aS'empty_from'
p913
aS'bake_in'
p914
aS'put_next^-1'
p915
aS'cram_under^-1'
p916
aS'defend_from'
p917
aS'heap_with'
p918
aS'fold_on^-1'
p919
aS'tear_off^-1'
p920
aS'spread_for^-1'
p921
aS'prop_in^-1'
p922
aS'lay_near^-1'
p923
aS'away_from^-1'
p924
aS'drop_below^-1'
p925
aS'place_beside^-1'
p926
aS'fit_over^-1'
p927
aS'pop^-1'
p928
aS'gap_between'
p929
aS'detonate'
p930
aS'ration_to^-1'
p931
aS'pasteurize_in^-1'
p932
aS'package_in^-1'
p933
aS'stopper_with'
p934
aS'stop_of'
p935
aS'pop_from^-1'
p936
aS'creamy_through^-1'
p937
aS'drop_in.'
p938
aS'explode_from^-1'
p939
aS'cork_with'
p940
aS'sterilise_in^-1'
p941
aS'fill_into^-1'
p942
aS'sterilize'
p943
aS'bottle_in^-1'
p944
aS'feed_from^-1'
p945
aS'dispense_in^-1'
p946
aS'sterilize_in^-1'
p947
aS'cost_in^-1'
p948
aS'reckon_by^-1'
p949
aS'retail_in^-1'
p950
aS'lock_with'
p951
aS'sell_with'
p952
aS'build_like^-1'
p953
aS'prophesy_of^-1'
p954
aS'assemble_from^-1'
p955
aS'resemble_of^-1'
p956
aS'copy_for'
p957
aS'be_abbey'
p958
aS'elevate_into^-1'
p959
aS'doeth'
p960
aS'erect_as^-1'
p961
aS'model_after^-1'
p962
aS'consecrate_as^-1'
p963
aS'destroy_except^-1'
p964
aS"be_'"
p965
aS'clutch_against^-1'
p966
aS'fling_round'
p967
aS'sew_to'
p968
aS'conceal_under^-1'
p969
aS'consider_before^-1'
p970
aS'wrinkle_by'
p971
aS'button_round'
p972
aS'tie_round'
p973
aS'button_at'
p974
aS'fasten_round'
p975
aS'collar_around'
p976
aS'move_beneath^-1'
p977
aS'raise_without'
p978
aS'suspend_like'
p979
aS'hang_off^-1'
p980
aS'cease_round'
p981
aS'thrust_to'
p982
aS'strike_to'
p983
aS'convulse_in'
p984
aS'flare_above'
p985
aS'look_above^-1'
p986
aS'display_without'
p987
aS'whet'
p988
aS"sail'd_to^-1"
p989
aS'ascend_above^-1'
p990
aS'right_on^-1'
p991
aS'intercept_by^-1'
p992
aS'dive_at'
p993
aS'sit_near'
p994
aS'gallop_like^-1'
p995
aS'anchor_than'
p996
aS'convoy_by^-1'
p997
aS'poise_with'
p998
aS'breathe_with'
p999
aS'distend'
p1000
aS'breathe_by'
p1001
aS'trim_as'
p1002
aS'herd^-1'
p1003
aS'escape_between'
p1004
aS'mention_among'
p1005
aS'esteem_as'
p1006
aS'cackle_among'
p1007
aS'hammer_with^-1'
p1008
aS'gobble^-1'
p1009
aS'obtain_upon'
p1010
aS'thrash_with'
p1011
aS'fidget'
p1012
aS'tread_on'
p1013
aS'chumping_through'
p1014
aS'contaminate_over'
p1015
aS'trample_upon'
p1016
aS'ride_for'
p1017
aS'gallop_with'
p1018
aS'kick_on'
p1019
aS'start_to'
p1020
aS'shoe_on'
p1021
aS'budge'
p1022
aS'step_on'
p1023
aS'bound_to'
p1024
aS'tie_under^-1'
p1025
aS'outride'
p1026
aS'stomp'
p1027
aS'trample_on'
p1028
aS'clear_from'
p1029
aS'stagger_at'
p1030
aS'kick_with'
p1031
aS'renew_on'
p1032
aS'stagger_to'
p1033
aS'trample_under'
p1034
aS'endeavour_to^-1'
p1035
aS'scrunch_with'
p1036
aS'limp_on'
p1037
aS'carry_within'
p1038
aS'sweep_off'
p1039
aS'follow_behind'
p1040
aS'flounder_to'
p1041
aS'sprain'
p1042
aS'tread_under'
p1043
aS'stand_fore'
p1044
aS'distinguish_at'
p1045
aS'hesitate_with'
p1046
aS'struggle_to'
p1047
aS'stand_within'
p1048
aS'scramble_for'
p1049
aS'rally_behind^-1'
p1050
aS'rear_with'
p1051
aS'crush_under'
p1052
aS'picket_at'
p1053
aS'dream_on'
p1054
aS'carry_off'
p1055
aS'amble_with'
p1056
aS'paw_with'
p1057
aS'plash'
p1058
aS'move_after'
p1059
aS'crush_with'
p1060
aS'brazen'
p1061
aS'cast_with'
p1062
aS'churn_with'
p1063
aS'dash_with'
p1064
aS'spurn_with'
p1065
aS'scratch_with'
p1066
aS'trample_with'
p1067
aS'guide_to^-1'
p1068
aS'luxury^-1'
p1069
aS'build_include^-1'
p1070
aS'v^-1'
p1071
aS'accommodate_at^-1'
p1072
aS'toss_over'
p1073
aS'make_across'
p1074
aS'peak_over'
p1075
aS'split_up'
p1076
aS'drape_on'
p1077
aS'stoop_under^-1'
p1078
aS'belt_at'
p1079
aS'wad_with'
p1080
aS'incubate_in^-1'
p1081
aS'charge_as^-1'
p1082
aS'seal_to'
p1083
aS'orifices_through'
p1084
aS'orifices_through^-1'
p1085
aS'lay_without'
p1086
aS'dagger_with'
p1087
aS'grow_than'
p1088
aS'advise_by'
p1089
aS'bow_before^-1'
p1090
aS'passeth'
p1091
aS'run_before'
p1092
aS'launch_by'
p1093
aS'propel_by'
p1094
aS'quarter^-1'
p1095
aS'crumble_in'
p1096
aS"view'st"
p1097
aS'heat_under'
p1098
aS'opes'
p1099
aS'cock_at^-1'
p1100
aS'flee_before'
p1101
aS'thumb_at'
p1102
aS'lash_for^-1'
p1103
aS'fire_across'
p1104
aS'remain_like^-1'
p1105
aS'eat_as'
p1106
aS'burst_on'
p1107
aS'write_over'
p1108
aS'feature_in^-1'
p1109
aS'donate_by^-1'
p1110
aS'donate'
p1111
aS'outclass_as'
p1112
aS'double_as^-1'
p1113
aS'flicker_from^-1'
p1114
aS'whisper_with'
p1115
aS'star_into'
p1116
aS'spit^-1'
p1117
aS'strike_like^-1'
p1118
aS'transpose'
p1119
aS'fee_after^-1'
p1120
aS'drive_like^-1'
p1121
aS'put_among'
p1122
aS'experiment^-1'
p1123
aS'bundle_with^-1'
p1124
aS'wear_without'
p1125
aS'wear_to^-1'
p1126
aS'button_over^-1'
p1127
aS'rustle^-1'
p1128
aS'fasten_into'
p1129
aS'play_through'
p1130
aS'swing_from'
p1131
aS'reverse_with^-1'
p1132
aS'hang_against'
p1133
aS'rusteth_upon'
p1134
aS'hack_with^-1'
p1135
aS'suspend_on'
p1136
aS'rest_against'
p1137
aS'fly_before'
p1138
aS'jostle^-1'
p1139
aS'leap_like^-1'
p1140
aS'gripe_like^-1'
p1141
aS'crash_with^-1'
p1142
aS'dump_from^-1'
p1143
aS'pitch_in'
p1144
aS'werd'
p1145
aS'een'
p1146
aS'park_by'
p1147
aS'leave_before'
p1148
aS'het'
p1149
aS'renale_de'
p1150
aS'het^-1'
p1151
aS'meisjes'
p1152
aS'park_outside'
p1153
aS'park_with'
p1154
aS'pull_outside'
p1155
aS'back_into'
p1156
aS'paint_like'
p1157
aS'flee_before^-1'
p1158
aS'tow_by'
p1159
aS'convoy_by'
p1160
aS'arrive_include^-1'
p1161
aS'dangle_in^-1'
p1162
aS'slip_over'
p1163
aS'near_as^-1'
p1164
aS'prove_against'
p1165
aS'slap_with'
p1166
aS'speed_on'
p1167
aS'get_upon'
p1168
aS'have_beneath'
p1169
aS'detonate_by'
p1170
aS'explode_like^-1'
p1171
aS'drag_on'
p1172
aS"op'd"
p1173
aS'yon^-1'
p1174
aS'clasp_with'
p1175
aS'hook_in'
p1176
aS'scoop'
p1177
aS'swoop_upon'
p1178
aS'fee_beside'
p1179
aS'hover_like^-1'
p1180
aS'claw_at'
p1181
aS'soar_with^-1'
p1182
aS"gaz'd_with"
p1183
aS'strike_except^-1'
p1184
aS'gum_to'
p1185
aS'soar_above'
p1186
aS'fly_round'
p1187
aS'soar_over'
p1188
aS'glitter_like^-1'
p1189
aS'sail_over'
p1190
aS'perch_above'
p1191
aS'circle_above'
p1192
aS'behold_of^-1'
p1193
aS'saw_of^-1'
p1194
aS'undivided^-1'
p1195
aS'thrust_in^-1'
p1196
aS'taunt^-1'
p1197
aS'bulldoze_over^-1'
p1198
aS'feather^-1'
p1199
aS'crumple^-1'
p1200
aS'retrieve_by^-1'
p1201
aS'rescue_by^-1'
p1202
aS'import_with'
p1203
aS'back_at'
p1204
aS'carve_opposite'
p1205
aS'stoop'
p1206
aS'pace_with'
p1207
aS'hang_down'
p1208
aS'pitch_on'
p1209
aS'fret_for'
p1210
aS'confer_with'
p1211
aS'kick_in'
p1212
aS'say_off'
p1213
aS'receive_upon^-1'
p1214
aS'swoared_over'
p1215
aS'bogged'
p1216
aS'neigh_with'
p1217
aS'yank'
p1218
aS'force_toward^-1'
p1219
aS'drink_with'
p1220
aS'fling_over'
p1221
aS'knock_in'
p1222
aS'converge_over'
p1223
aS'spraddled_with'
p1224
aS'drift_with'
p1225
aS'walk_by^-1'
p1226
aS'feed_of'
p1227
aS'bite_over'
p1228
aS'droop_like^-1'
p1229
aS'turn_after^-1'
p1230
aS'pitch_upon'
p1231
aS'swim_with'
p1232
aS'plod_with'
p1233
aS'lash_to'
p1234
aS'pack_on^-1'
p1235
aS'detain_for'
p1236
aS'gaue_for'
p1237
aS'check_into^-1'
p1238
aS'accommodate_in^-1'
p1239
aS'dine_at^-1'
p1240
aS'rent_to'
p1241
aS'cater_to'
p1242
aS'straggle_to^-1'
p1243
aS'cram_to'
p1244
aS'stick_beyond^-1'
p1245
aS'bend_into'
p1246
aS'wear_as'
p1247
aS'sting_on'
p1248
aS'button_around'
p1249
aS'zip_to'
p1250
aS'embroider_with^-1'
p1251
aS'flare_from^-1'
p1252
aS'entrain'
p1253
aS'deliver_through^-1'
p1254
aS'ignite_by^-1'
p1255
aS'light_at^-1'
p1256
aS'entrain_in^-1'
p1257
aS'burn_from^-1'
p1258
aS'spin_from^-1'
p1259
aS'give_between'
p1260
aS'hang_between'
p1261
aS'thrust_under'
p1262
aS'mean_with'
p1263
aS'tap_with^-1'
p1264
aS'have_fore'
p1265
aS'singe'
p1266
aS'color_with'
p1267
aS'handle_like^-1'
p1268
aS'ship_without'
p1269
aS"guard'st"
p1270
aS'pack_into^-1'
p1271
aS'fluff'
p1272
aS'use_include^-1'
p1273
aS'signify_of^-1'
p1274
aS'scar^-1'
p1275
aS'popularize'
p1276
aS'blare_with'
p1277
aS'crackle'
p1278
aS'tune_to'
p1279
aS'drift_from^-1'
p1280
aS'blare_from^-1'
p1281
aS'blast_from^-1'
p1282
aS'blare'
p1283
aS'play_from^-1'
p1284
aS'broadcast_over^-1'
p1285
aS'dispense'
p1286
aS'float_from^-1'
p1287
aS'present_over^-1'
p1288
aS'play_over^-1'
p1289
aS'stream_from^-1'
p1290
aS'indicate_exclude'
p1291
aS'contract_at^-1'
p1292
aS'outclass'
p1293
aS'wither_like'
p1294
aS'dangle_from^-1'
p1295
aS'transform_to^-1'
p1296
aS'throw_under'
p1297
aS'chase_by'
p1298
aS'tuck_in'
p1299
aS'creep_from'
p1300
aS'possess_beneath'
p1301
aS'encircle_with^-1'
p1302
aS'wake_with'
p1303
aS'glisten_with'
p1304
aS'touch_to'
p1305
aS'float_like^-1'
p1306
aS'vibrate'
p1307
aS'enter_beneath'
p1308
aS'fly_under'
p1309
aS'grasp_in'
p1310
aS'impale_on^-1'
p1311
aS'stick_upon^-1'
p1312
aS'rattle_over'
p1313
aS'fly_above'
p1314
aS'stick_on^-1'
p1315
aS'expose_on^-1'
p1316
aS'stick_at'
p1317
aS'sink_before^-1'
p1318
aS'whistle_by'
p1319
aS'yearneth_for^-1'
p1320
aS'whiz_past'
p1321
aS'float_above'
p1322
aS'carve_of'
p1323
aS'receive_about'
p1324
aS'plat_with'
p1325
aS'utter_at'
p1326
aS'sing_on'
p1327
aS'lengthen_into^-1'
p1328
aS'nick^-1'
p1329
aS'enter_between'
p1330
aS'pace_with^-1'
p1331
aS'resheathed^-1'
p1332
aS'unsheathe^-1'
p1333
aS'spring_between'
p1334
aS'spring_upon'
p1335
aS'relinquish_upon'
p1336
aS'charge_past^-1'
p1337
aS'poise_on^-1'
p1338
aS'stop_behind'
p1339
aS'smash_into'
p1340
aS'park_behind'
p1341
aS'pull_beside^-1'
p1342
aS'tow_by^-1'
p1343
aS'flatten_by^-1'
p1344
aS'park_behind^-1'
p1345
aS'stick_behind^-1'
p1346
aS'sideswipe'
p1347
aS'crash_into'
p1348
aS'broadside_by^-1'
p1349
aS'pull_alongside^-1'
p1350
aS'smash_into^-1'
p1351
aS'ram_by^-1'
p1352
aS'sideswipe_by^-1'
p1353
aS'crash_into^-1'
p1354
aS'bash'
p1355
aS'haul_on^-1'
p1356
aS'skid_toward^-1'
p1357
aS'trade_for^-1'
p1358
aS'slam_into'
p1359
aS'shunt_beside^-1'
p1360
aS'rev'
p1361
aS'power_with'
p1362
aS'load_in'
p1363
aS'arrive_within'
p1364
aS'blackbrowed_in^-1'
p1365
aS'protect_as'
p1366
aS'flicker_in'
p1367
aS'propel^-1'
p1368
aS'bow_under'
p1369
aS'encroach_upon'
p1370
aS'confide_in^-1'
p1371
aS'call_blister^-1'
p1372
aS'stow_in'
p1373
aS'concave_on'
p1374
aS'label_in^-1'
p1375
aS'drive_upon'
p1376
aS'place_inside^-1'
p1377
aS'place_inside'
p1378
aS'smoke_on^-1'
p1379
aS'lay_beside'
p1380
aS'inclose_in^-1'
p1381
aS'cast_from^-1'
p1382
aS'vaunt_as^-1'
p1383
aS'arrive_opposite^-1'
p1384
aS'confide_by'
p1385
aS'murder_at^-1'
p1386
aS'besiege_in^-1'
p1387
aS'tooke^-1'
p1388
aS'chase_into^-1'
p1389
aS'rebuild^-1'
p1390
aS'set_within^-1'
p1391
aS'demolish^-1'
p1392
aS'push_toward^-1'
p1393
aS'pursue_to^-1'
p1394
aS'garrison_for'
p1395
aS'swear_at'
p1396
aS'hustle'
p1397
aS'chip_with^-1'
p1398
aS'creep_from^-1'
p1399
aS'fray_at'
p1400
aS'wear_of^-1'
p1401
aS'cover_under^-1'
p1402
aS'put_like'
p1403
aS'put_like^-1'
p1404
aS'waggle'
p1405
aS'rebuild_since'
p1406
aS'rent_by'
p1407
aS'drive_toward^-1'
p1408
aS'cluster_about^-1'
p1409
aS'roof_like^-1'
p1410
aS'slat'
p1411
aS'build_near'
p1412
aS'overshadow_in^-1'
p1413
aS'thatch^-1'
p1414
aS'come_among'
p1415
aS'foot_in^-1'
p1416
aS'jab'
p1417
aS'rear_like'
p1418
aS'caw_after'
p1419
aS'tie_like'
p1420
aS'live_than'
p1421
aS'terrify'
p1422
aS'stampede_by^-1'
p1423
aS'intermingle_with^-1'
p1424
aS'rush_towards'
p1425
aS'impale_on'
p1426
aS'dig_with'
p1427
aS'plant_as'
p1428
aS'grow_among'
p1429
aS'group_like'
p1430
aS'note_among'
p1431
aS'hold_near'
p1432
aS'support_upon^-1'
p1433
aS'hear_throughout'
p1434
aS'mebbe^-1'
p1435
aS'browse'
p1436
aS'resemble_as^-1'
p1437
aS'mohair^-1'
p1438
aS'prey_by'
p1439
aS'raise_as'
p1440
aS'stand_beneath^-1'
p1441
aS'drop_for^-1'
p1442
aS'venture_between'
p1443
aS'fell_beside'
p1444
aS'hook^-1'
p1445
aS'feed_beside'
p1446
aS'differ_as'
p1447
aS'kick_like^-1'
p1448
aS'kick_by^-1'
p1449
aS'barter_for'
p1450
aS'shy_at'
p1451
aS'kiss_by'
p1452
aS'lie_as^-1'
p1453
aS'brand^-1'
p1454
aS'bridle^-1'
p1455
aS'bring_around^-1'
p1456
aS'trip_over'
p1457
aS'be_next'
p1458
aS'squeal_like'
p1459
aS'pick_at^-1'
p1460
aS'live_include^-1'
p1461
aS'charge_per'
p1462
aS'hire_for^-1'
p1463
aS'throng_to^-1'
p1464
aS'erect_of'
p1465
aS'curl_over^-1'
p1466
aS'select_of'
p1467
aS'reflect_into^-1'
p1468
aS'await_at'
p1469
aS'develope_into'
p1470
aS'have_until'
p1471
aS'recline_in^-1'
p1472
aS'use_include'
p1473
aS'fire_without'
p1474
aS'oven^-1'
p1475
aS'grind_as^-1'
p1476
aS'introduce_since^-1'
p1477
aS'reappear^-1'
p1478
aS'perch_like^-1'
p1479
aS'capture_with^-1'
p1480
aS'cover_as'
p1481
aS'transmit_without'
p1482
aS'grind_with^-1'
p1483
aS'kill_o^-1'
p1484
aS'worry^-1'
p1485
aS'scamper_with'
p1486
aS'savage^-1'
p1487
aS'trot_beside^-1'
p1488
aS'run_after^-1'
p1489
aS'bark_at^-1'
p1490
aS'beguile'
p1491
aS'serveth^-1'
p1492
aS'commit_amongst^-1'
p1493
aS'harry^-1'
p1494
aS'tire_beneath^-1'
p1495
aS'bolt_between'
p1496
aS'graze_on'
p1497
aS'rasp_like^-1'
p1498
aS'pin_to^-1'
p1499
aS'bite_with'
p1500
aS'inject_through'
p1501
aS'disown'
p1502
aS'value_above^-1'
p1503
aS'thrust_with^-1'
p1504
aS"grasp'd"
p1505
aS'weigh_without'
p1506
aS'exchange_between^-1'
p1507
aS'toil_with'
p1508
aS'glide_between^-1'
p1509
aS'carapaced^-1'
p1510
aS'overlook_by^-1'
p1511
aS'raid_in'
p1512
aS'sonatas'
p1513
aS'gobble'
p1514
aS'sting_like^-1'
p1515
aS'value_for'
p1516
aS'bend_like^-1'
p1517
aS'grow_except^-1'
p1518
aS'perish^-1'
p1519
aS'group_with'
p1520
aS'peel^-1'
p1521
aS'constitute_like^-1'
p1522
aS'crush_under^-1'
p1523
aS'stagger_into'
p1524
aS'heap_to'
p1525
aS'gladden'
p1526
aS'trap_for'
p1527
aS'clout_alongside'
p1528
aS'converse_with'
p1529
aS"'s_except^-1"
p1530
aS'dominate_over'
p1531
aS'oust_by'
p1532
aS'shed_like^-1'
p1533
aS'turn_than'
p1534
aS'establish_than'
p1535
aS'jettison'
p1536
aS'detonate_by^-1'
p1537
aS'unload'
p1538
aS'press_from'
p1539
aS'fashion_into^-1'
p1540
aS'hollow_into^-1'
p1541
aS'lay_against'
p1542
aS'stow_in^-1'
p1543
aS'lower_over'
p1544
aS'strap_on'
p1545
aS'enclose_on'
p1546
aS'glue_round'
p1547
aS'mount_at'
p1548
aS'position_on'
p1549
aS'stuff_by'
p1550
aS'slip_to'
p1551
aS'fit_on'
p1552
aS'store_by'
p1553
aS'bolt_to'
p1554
aS'jerk_to'
p1555
aS'smash_on'
p1556
aS'batter_on'
p1557
aS'cover_on'
p1558
aS'slop'
p1559
aS'nail_to'
p1560
aS'sit_to'
p1561
aS'surround_on'
p1562
aS'arrange_along'
p1563
aS"cramm'd_on"
p1564
aS'retreat_into^-1'
p1565
aS'flank_with'
p1566
aS'drape_in^-1'
p1567
aS'set_around^-1'
p1568
aS'reach_beyond'
p1569
aS'rejoice^-1'
p1570
aS'import_as'
p1571
aS'edge_with'
p1572
aS'trim_on^-1'
p1573
aS'rip_from^-1'
p1574
aS'ornament_on'
p1575
aS'lace_with'
p1576
aS'clasp_against'
p1577
aS'sit_behind^-1'
p1578
aS'tuck_under^-1'
p1579
aS'place_below'
p1580
aS'push_from^-1'
p1581
aS'face_across^-1'
p1582
aS'push_under^-1'
p1583
aS'coo_above'
p1584
aS'shy_over'
p1585
aS'alight_on'
p1586
aS'alight_upon'
p1587
aS'build_above'
p1588
aS'show_above'
p1589
aS'hover_above'
p1590
aS'pop_off^-1'
p1591
aS'poise_on'
p1592
aS'flutter_with'
p1593
aS'escort_by^-1'
p1594
aS'shoot_for^-1'
p1595
aS'orbit_among^-1'
p1596
aS'fit_upon'
p1597
aS'victual^-1'
p1598
aS'load_for'
p1599
aS'pucker_like^-1'
p1600
aS'roll_at'
p1601
aS'chink_on'
p1602
aS'ring_upon'
p1603
aS'repose_beside'
p1604
aS'ring_on'
p1605
aS'soundless_on'
p1606
aS'clang_upon'
p1607
aS'hear_upon'
p1608
aS'poise_over'
p1609
aS'caw_after^-1'
p1610
aS'hing_by'
p1611
aS'doublebreasted^-1'
p1612
aS'fence^-1'
p1613
aS'impinge_on'
p1614
aS'keep_nearest'
p1615
aS'open_as'
p1616
aS'overshaded_by^-1'
p1617
aS'plant_amid'
p1618
aS'strike_beyond'
p1619
aS'isolate_like'
p1620
aS'wander_under'
p1621
aS'reappear_with^-1'
p1622
aS'evergreen^-1'
p1623
aS'sacrifice_save^-1'
p1624
aS'tained'
p1625
aS'yield_as^-1'
p1626
aS'refembles^-1'
p1627
aS'tortillas^-1'
p1628
aS'hawk_by^-1'
p1629
aS'ripen_after'
p1630
aS'ripen'
p1631
aS'mature_upon'
p1632
aS'mammee'
p1633
aS'tap_to^-1'
p1634
aS'program_into^-1'
p1635
aS'ring_at'
p1636
aS'post_near^-1'
p1637
aS'dial_on^-1'
p1638
aS'keep_near^-1'
p1639
aS'post_by^-1'
p1640
aS'program_in^-1'
p1641
aS'mat_with'
p1642
aS'donate_in^-1'
p1643
aS'innkeepers'
p1644
aS'shut_down^-1'
p1645
aS'capture_with'
p1646
aS'take_than^-1'
p1647
aS'sing_as'
p1648
aS'cease_as'
p1649
aS'sulk_with'
p1650
aS'consider_before'
p1651
aS'rip_in'
p1652
aS'unbutton_down'
p1653
aS'plait_in'
p1654
aS'lace_in'
p1655
aS'open_down'
p1656
aS'raise_like'
p1657
aS'spell_from^-1'
p1658
aS'flatten'
p1659
aS"wreath'd_with"
p1660
aS'curl_with'
p1661
aS'wreathe_with^-1'
p1662
aS'fit_over'
p1663
aS'wind_about'
p1664
aS'wreathe_with'
p1665
aS'look_under'
p1666
aS'tell_as'
p1667
aS'pounce_on'
p1668
aS'molest^-1'
p1669
aS'haul_by'
p1670
aS'put_about'
p1671
aS'andel^-1'
p1672
aS'rent_for'
p1673
aS'furnish_during'
p1674
aS'hear_above'
p1675
aS'carrion'
p1676
aS'fool^-1'
p1677
aS'lengthen'
p1678
aS'dance_between'
p1679
aS'tug_at'
p1680
aS'bob_at'
p1681
aS'dart_across'
p1682
aS'arrive_to'
p1683
aS'survive_as'
p1684
aS'strangle^-1'
p1685
aS'strangle_in^-1'
p1686
aS'stew_in^-1'
p1687
aS'lie_without^-1'
p1688
aS'toss_on^-1'
p1689
aS'stiffen'
p1690
aS'procure_with'
p1691
aS'elevate_like^-1'
p1692
aS'border_with^-1'
p1693
aS'tilt_about'
p1694
aS'line_along'
p1695
aS'lock_at'
p1696
aS'hang_to^-1'
p1697
aS'orient_with'
p1698
aS'dance_about'
p1699
aS'dance_over'
p1700
aS'flutter_around'
p1701
aS'flutter_about'
p1702
aS'throng_to'
p1703
aS'plant_at'
p1704
aS'rebuild_on'
p1705
aS'veneer_with'
p1706
aS'encrust_with'
p1707
aS'locate_upon'
p1708
aS'creep_to^-1'
p1709
aS'invite_with'
p1710
aS'get_inside'
p1711
aS'cut_without'
p1712
aS'trim_under'
p1713
aS'stick_around'
p1714
aS'split_from'
p1715
aS'button_upon'
p1716
aS'lapelled_with'
p1717
aS'arrive_before^-1'
p1718
aS'spread_beside'
p1719
aS'swarm_like^-1'
p1720
aS'carrion^-1'
p1721
aS'fringe_like^-1'
p1722
aS'spring_around^-1'
p1723
aS'bound_of'
p1724
aS'flit_like^-1'
p1725
aS'circle_on'
p1726
aS'cleave_with'
p1727
aS'hatch_on'
p1728
aS'soar_on'
p1729
aS'moult'
p1730
aS'dart_from'
p1731
aS'droop_with'
p1732
aS'outspread'
p1733
aS'expand_like^-1'
p1734
aS'shade_with'
p1735
aS"stretch'd"
p1736
aS'scream_on'
p1737
aS'spreadeth'
p1738
aS'charge_past'
p1739
aS'relinquish_upon^-1'
p1740
aS'spring_between^-1'
p1741
aS'suspend_upon^-1'
p1742
aS'glide_upon'
p1743
aS'plat^-1'
p1744
aS'bulge_like^-1'
p1745
aS'blink_with'
p1746
aS'respire_by'
p1747
aS'misname^-1'
p1748
aS'smash_with^-1'
p1749
aS'pound_in'
p1750
aS'pound_like^-1'
p1751
aS'pound_near'
p1752
aS'work_within'
p1753
aS'circle_round'
p1754
aS'drum_in'
p1755
aS'clap_on'
p1756
aS'stick_on'
p1757
aS'tip_to'
p1758
aS'tilt_to'
p1759
aS'clap_to'
p1760
aS'push_on'
p1761
aS'slopin_down'
p1762
aS'cock_on'
p1763
aS'slip_down'
p1764
aS'shove_to'
p1765
aS'slide_to'
p1766
aS'tip_at'
p1767
aS'tilt_on'
p1768
aS'crush_between'
p1769
aS'drip_down'
p1770
aS'weave_from'
p1771
aS'strike_near'
p1772
aS'nail_on'
p1773
aS'spiral_like'
p1774
aS'manufacture_into^-1'
p1775
aS'perch^-1'
p1776
aS'lash_into'
p1777
aS'saddle_with'
p1778
aS'disencumber_of'
p1779
aS'cinch_on^-1'
p1780
aS'slay_with'
p1781
aS'tear_with'
p1782
aS'gird_on^-1'
p1783
aS'reappear_without'
p1784
aS'deliver_without'
p1785
aS'hipped_with'
p1786
aS'beareth'
p1787
aS'tether_to'
p1788
aS'caparison_with'
p1789
aS'stay_from'
p1790
aS'sleep_at^-1'
p1791
aS'stalk_in^-1'
p1792
aS'direct_upon'
p1793
aS'remove_near^-1'
p1794
aS'contain_under'
p1795
aS'sniff_at^-1'
p1796
aS'launch_at'
p1797
aS'launch_from'
p1798
aS'waste_as^-1'
p1799
aS'enfold^-1'
p1800
aS'ripen_on^-1'
p1801
aS'traduce'
p1802
aS'peel_of'
p1803
aS'flred_with'
p1804
aS'pass_around^-1'
p1805
aS'force_around^-1'
p1806
aS'trade_for'
p1807
aS'costume_as^-1'
p1808
aS'devour_for'
p1809
aS'find_like^-1'
p1810
aS'gladden_except^-1'
p1811
aS'wing_like^-1'
p1812
aS'sleeved^-1'
p1813
aS'rasp_like'
p1814
aS'take_except^-1'
p1815
aS'swim_within'
p1816
aS'jump_against'
p1817
aS'bite_on'
p1818
aS'tuck_on^-1'
p1819
aS'tree^-1'
p1820
aS'pick_at'
p1821
aS'scamper_over'
p1822
aS'glide'
p1823
aS'posit'
p1824
aS'sound_by^-1'
p1825
aS'rush_before^-1'
p1826
aS'bounce_from'
p1827
aS'skirt_with'
p1828
aS'dot_in'
p1829
aS'outdo'
p1830
aS'enamour'
p1831
aS'peep_from'
p1832
aS'sprinkle_in'
p1833
aS'glitter_against'
p1834
aS'sling_at'
p1835
aS'scrap_across^-1'
p1836
aS'catch_near'
p1837
aS'leap_like'
p1838
aS'stroke_with'
p1839
aS'tap_with'
p1840
aS'slice_with'
p1841
aS'hang_among'
p1842
aS'shin_amidst'
p1843
aS'burn_among'
p1844
aS'glisten_between'
p1845
aS'flavor_with'
p1846
aS'socketed^-1'
p1847
aS'hurl_from^-1'
p1848
aS'detonate_on'
p1849
aS'blow_on'
p1850
aS'muffle'
p1851
aS'slip_over^-1'
p1852
aS'dangle_in'
p1853
aS'hang_above'
p1854
aS'warm_in^-1'
p1855
aS'slide_like'
p1856
aS'roar_like^-1'
p1857
aS'lay_beside^-1'
p1858
aS'rifle^-1'
p1859
aS'bore_like^-1'
p1860
aS'line_to'
p1861
aS'raise_under'
p1862
aS'angle_with'
p1863
aS'jam_to'
p1864
aS'steam^-1'
p1865
aS'butter^-1'
p1866
aS'cub^-1'
p1867
aS'remaineth_in^-1'
p1868
aS'encounter_near^-1'
p1869
aS'officiate_at^-1'
p1870
aS'daub^-1'
p1871
aS'pontificate_at^-1'
p1872
aS'bless_in^-1'
p1873
aS'consecrate_in^-1'
p1874
aS'reclaim_by'
p1875
aS'have_near^-1'
p1876
aS'hold_among'
p1877
aS'erect_than^-1'
p1878
aS'overtop'
p1879
aS'chain_in'
p1880
aS'shift_on^-1'
p1881
aS'bounce_in^-1'
p1882
aS'straighten_in^-1'
p1883
aS'squirm_in^-1'
p1884
aS'rule_from^-1'
p1885
aS'jump_off^-1'
p1886
aS'lean_upon^-1'
p1887
aS'slouch_in^-1'
p1888
aS'fidget_in^-1'
p1889
aS'jump_on^-1'
p1890
aS'seat_upon^-1'
p1891
aS'sit_near^-1'
p1892
aS'lounge_in^-1'
p1893
aS'slump_into^-1'
p1894
aS'shove^-1'
p1895
aS'scrap_by'
p1896
aS'double_on^-1'
p1897
aS'slump_in^-1'
p1898
aS'sprawl_across^-1'
p1899
aS'fell_off^-1'
p1900
aS'raise_upon^-1'
p1901
aS'jump_in^-1'
p1902
aS'climb_onto^-1'
p1903
aS'climb_on^-1'
p1904
aS'slide_from^-1'
p1905
aS'curl_in^-1'
p1906
aS'slide_off^-1'
p1907
aS'loll_on^-1'
p1908
aS'prop_on^-1'
p1909
aS'shape_with'
p1910
aS'cock_on^-1'
p1911
aS'draw_off^-1'
p1912
aS'thrust_upon^-1'
p1913
aS'cabriole'
p1914
aS'tip_on'
p1915
aS'tremble_on^-1'
p1916
aS'bang_on'
p1917
aS'twirl_on'
p1918
aS'totter_on'
p1919
aS'comport_upon'
p1920
aS'tuck_beneath^-1'
p1921
aS'twist_beneath^-1'
p1922
aS'part_from^-1'
p1923
aS'elevate_on^-1'
p1924
aS'rock_on'
p1925
aS'teeter_on'
p1926
aS'totter_upon'
p1927
aS'rush_on'
p1928
aS'trim^-1'
p1929
aS'roll_under^-1'
p1930
aS"pull'd^-1"
p1931
aS'pulld^-1'
p1932
aS'don^-1'
p1933
aS'colour_with'
p1934
aS'come_below^-1'
p1935
aS'fell_near^-1'
p1936
aS'fold_into^-1'
p1937
aS'fold_into'
p1938
aS'interpolate_among^-1'
p1939
aS'bank_with'
p1940
aS'deck_in'
p1941
aS'bay^-1'
p1942
aS'breed_with^-1'
p1943
aS'tame^-1'
p1944
aS'prowl_with^-1'
p1945
aS'beautify_with'
p1946
aS'get_after^-1'
p1947
aS'scent^-1'
p1948
aS'hunt_by'
p1949
aS'corner^-1'
p1950
aS'flush^-1'
p1951
aS'escape_after^-1'
p1952
aS'start_after^-1'
p1953
aS'dance_on'
p1954
aS'prey_on^-1'
p1955
aS'miss_on^-1'
p1956
aS'rid_for'
p1957
aS'lace_below'
p1958
aS'fling_over^-1'
p1959
aS'button_down'
p1960
aS'tip_in'
p1961
aS'cling_like'
p1962
aS'cruise_over'
p1963
aS'down^-1'
p1964
aS'lose_over'
p1965
aS'man_by'
p1966
aS'shout_at'
p1967
aS'glare_at'
p1968
aS'chase_under'
p1969
aS'glide_with'
p1970
aS'fire_upon^-1'
p1971
aS'moor_across'
p1972
aS'twitch_in^-1'
p1973
aS'burst_through^-1'
p1974
aS'fit_inside^-1'
p1975
aS'twist_between'
p1976
aS'pluck_for'
p1977
aS'pluck_from^-1'
p1978
aS'line_at'
p1979
aS'turn_like^-1'
p1980
aS'canter_with'
p1981
aS'run_without'
p1982
aS'rein^-1'
p1983
aS'prance_in'
p1984
aS'spin_in'
p1985
aS'graze_in'
p1986
aS'picket_in'
p1987
aS'run_around'
p1988
aS'trot_in'
p1989
aS'stand_outside'
p1990
aS'fasten_inside'
p1991
aS'wheel_into'
p1992
aS'secure_inside'
p1993
aS'gallop_in'
p1994
aS'tether_within'
p1995
aS'scramble_on'
p1996
aS'reserve_at^-1'
p1997
aS'book_at^-1'
p1998
aS'attempt_to'
p1999
aS'automate'
p2000
aS"fetter'd^-1"
p2001
aS'rove^-1'
p2002
aS'survive_after^-1'
p2003
aS'afeard_of^-1'
p2004
aS'belch^-1'
p2005
aS'design_except^-1'
p2006
aS'hook_with'
p2007
aS'sheathe'
p2008
aS'reproduce_from'
p2009
aS'bleed_from'
p2010
aS'scurry_with'
p2011
aS'saw_include^-1'
p2012
aS'bear_without'
p2013
aS'turn_without^-1'
p2014
aS'fell_off'
p2015
aS'adorn_down'
p2016
aS'fit_as'
p2017
aS'fumble_at'
p2018
aS'swear_at^-1'
p2019
aS'coho^-1'
p2020
aS'slaughter_as^-1'
p2021
aS'image_as'
p2022
aS'oppose_as^-1'
p2023
aS'shorn_for'
p2024
aS'shear_for'
p2025
aS'prize_for'
p2026
aS'clip_from^-1'
p2027
aS'shorn_from^-1'
p2028
aS'cover_under'
p2029
aS'shear_from^-1'
p2030
aS'bulge_against^-1'
p2031
aS'rip_from'
p2032
aS'crawl_from'
p2033
aS'soak_over'
p2034
aS'rive_from'
p2035
aS'wring_against'
p2036
aS'paste_to'
p2037
aS'plaster_to'
p2038
aS'sleeves_to'
p2039
aS'stick_from'
p2040
aS'want_to^-1'
p2041
aS'walkin'
p2042
aS'drip_like^-1'
p2043
aS'commence_off^-1'
p2044
aS'prepare_beside^-1'
p2045
aS'air^-1'
p2046
aS'desert_for^-1'
p2047
aS'disguise_as^-1'
p2048
aS'back_against'
p2049
aS'scold_above'
p2050
aS'steal_over'
p2051
aS'export_by^-1'
p2052
aS'advertise_in'
p2053
aS'examine_from'
p2054
aS'roll_toward'
p2055
aS'jump_like^-1'
p2056
aS'become_except^-1'
p2057
aS'disappear_except^-1'
p2058
aS'predominate_among'
p2059
aS'tortilis'
p2060
aS'find_except^-1'
p2061
aS'pack_into'
p2062
aS'label_in'
p2063
aS'drive_upon^-1'
p2064
aS'repurchase_at'
p2065
aS'walk_between^-1'
p2066
aS'mimic_by'
p2067
aS'arrive_as^-1'
p2068
aS'appear_include^-1'
p2069
aS'larvae_with^-1'
p2070
aS'find_include^-1'
p2071
aS'impale_like^-1'
p2072
aS'land_near'
p2073
aS'equip_for'
p2074
aS'launch_from^-1'
p2075
aS'cap_with'
p2076
aS'label_across'
p2077
aS'stopper^-1'
p2078
aS'blow_of'
p2079
aS'click_against'
p2080
aS'clink_on'
p2081
aS'shatter_on'
p2082
aS'inclose_in'
p2083
aS'rinse_with^-1'
p2084
aS'unpack_include^-1'
p2085
aS'discharge_upon'
p2086
aS'stride_into'
p2087
aS'build_without'
p2088
aS'open_opposite^-1'
p2089
aS'pier_of^-1'
p2090
aS'thy_than^-1'
p2091
aS'coat^-1'
p2092
aS'water^-1'
p2093
aS'start_among^-1'
p2094
aS'hide_beneath^-1'
p2095
aS'shout_with^-1'
p2096
aS'peak_like'
p2097
aS'cover_to'
p2098
aS'split_to'
p2099
aS'thinketh'
p2100
aS'learn_to^-1'
p2101
aS'lose_among^-1'
p2102
aS'tremble_like^-1'
p2103
aS'defend_from^-1'
p2104
aS'smell_about'
p2105
aS'approach_within'
p2106
aS'roe^-1'
p2107
aS'slaughter_as'
p2108
aS'image_as^-1'
p2109
aS'stretch_under^-1'
p2110
aS'wedge_to^-1'
p2111
aS'fit_under^-1'
p2112
aS'crash_against^-1'
p2113
aS'wedge_into^-1'
p2114
aS'kick_under^-1'
p2115
aS'prop_against^-1'
p2116
aS'have_behind'
p2117
aS'train_than'
p2118
aS'rest_beneath'
p2119
aS'invite_on'
p2120
aS'dipt'
p2121
aS'like_to^-1'
p2122
aS'loop_with'
p2123
aS'tear_to'
p2124
aS'stiffen_with'
p2125
aS'thissen_in'
p2126
aS'go_near^-1'
p2127
aS'crouch_under'
p2128
aS'marvel_at'
p2129
aS'upturned'
p2130
aS'separate_with'
p2131
aS'suck_into'
p2132
aS'search_with'
p2133
aS'manipulate_with'
p2134
aS'grab_with'
p2135
aS'rub_against'
p2136
aS'suck_with'
p2137
aS'wreathe'
p2138
aS'knock_with'
p2139
aS'tear_before'
p2140
aS'secrete_on^-1'
p2141
aS'ape^-1'
p2142
aS'advise_by^-1'
p2143
aS'bow_before'
p2144
aS'without'
p2145
aS'bristle_with'
p2146
aS'rat_at'
p2147
aS'retire_under'
p2148
aS'carry_about'
p2149
aS'wear_include^-1'
p2150
aS'keep_than^-1'
p2151
aS"dy'd_in"
p2152
aS'honk_over'
p2153
aS'trail_with'
p2154
aS'swoop_on'
p2155
aS'hat_by'
p2156
aS'stricken^-1'
p2157
aS'embody_into^-1'
p2158
aS'distribute_from'
p2159
aS'dangle'
p2160
aS'prowl_round^-1'
p2161
aS'fling_from^-1'
p2162
aS'swerve_as^-1'
p2163
aS'generate_betwixt^-1'
p2164
aS'stagger_like'
p2165
aS'grunt_in'
p2166
aS'erect_like^-1'
p2167
aS'sweat_with'
p2168
aS'lather_to'
p2169
aS'perk'
p2170
aS'bet^-1'
p2171
aS'fatten^-1'
p2172
aS'discriminate_by'
p2173
aS'cry_to^-1'
p2174
aS'brighten_like^-1'
p2175
aS'gallop_under'
p2176
aS'discover_among^-1'
p2177
aS'graze_under'
p2178
aS'gallop_before'
p2179
aS'roam_for^-1'
p2180
aS'stray_to^-1'
p2181
aS'light_upon^-1'
p2182
aS'fat_by'
p2183
aS'glue_to^-1'
p2184
aS'steal_before'
p2185
aS'speak_without'
p2186
aS'strike_between'
p2187
aS"turn'd"
p2188
aS'prance'
p2189
aS'cripple^-1'
p2190
aS'amble'
p2191
aS'race_with'
p2192
aS'luxe_to'
p2193
aS'keep_over'
p2194
aS'erect_with^-1'
p2195
aS'impinge_against'
p2196
aS'recede_from^-1'
p2197
aS'draw_unto'
p2198
aS'retrieve_from^-1'
p2199
aS'ransack^-1'
p2200
aS'strangle'
p2201
aS'devour_by^-1'
p2202
aS'run_among'
p2203
aS'incase_like^-1'
p2204
aS'winnow_with'
p2205
aS'grow_include^-1'
p2206
aS'pair_with'
p2207
aS'mention_amongst'
p2208
aS'bolt^-1'
p2209
aS'drink_like'
p2210
aS'characterise_to^-1'
p2211
aS'chase_down'
p2212
aS'drive_down'
p2213
aS'intersperse_among'
p2214
aS'curio'
p2215
aS'jump_in'
p2216
aS'hook_under'
p2217
aS'lean_near'
p2218
aS'sling_under'
p2219
aS'cradle_in'
p2220
aS'sharps^-1'
p2221
aS'cradle_on'
p2222
aS'clean_from'
p2223
aS'flashin_in'
p2224
aS'crack_in'
p2225
aS'attack_from'
p2226
aS'belt_with'
p2227
aS'drape_in'
p2228
aS'trail_in'
p2229
aS'toss_into'
p2230
aS'exchange_without'
p2231
aS'swim_towards'
p2232
aS'take_near'
p2233
aS'sacrifice_of'
p2234
aS'yoke_with'
p2235
aS'bleat_under'
p2236
aS'exhibit_from'
p2237
aS'tailor_with'
p2238
aS'cling_in'
p2239
aS'gap_at'
p2240
aS'wrap_about'
p2241
aS'crumple_at'
p2242
aS'hang_below'
p2243
aS'paint_around'
p2244
aS'give_around'
p2245
aS"'s_round"
p2246
aS'embroider_at'
p2247
aS'bind_about'
p2248
aS'tie_around'
p2249
aS'work_about'
p2250
aS'rip_at'
p2251
aS'tie_at'
p2252
aS'bulge_beneath'
p2253
aS'show_below'
p2254
aS'perforate_like^-1'
p2255
aS'spat_into'
p2256
aS'spat_in'
p2257
aS'aim_for'
p2258
aS'eject_into'
p2259
aS'clash^-1'
p2260
aS'fletched_at'
p2261
aS'shake_on^-1'
p2262
aS'covet^-1'
p2263
aS'cook_on^-1'
p2264
aS'cook_over^-1'
p2265
aS'heat_on^-1'
p2266
aS'fuel_by'
p2267
aS'crackle_in^-1'
p2268
aS'wield_by'
p2269
aS'shogled_on'
p2270
aS'stick_under'
p2271
aS'plowshares^-1'
p2272
aS'sheathe^-1'
p2273
aS'weary^-1'
p2274
aS'transfix_without'
p2275
aS'sparkle_from'
p2276
aS'export_in^-1'
p2277
aS'pump_from^-1'
p2278
aS'stencil_on'
p2279
aS'smash_through'
p2280
aS'park_at'
p2281
aS'park_near'
p2282
aS'fetch_in'
p2283
aS'illuminate_to^-1'
p2284
aS'loom_without'
p2285
aS'rotate_about'
p2286
aS'reecho'
p2287
aS'jolt_through'
p2288
aS'class_among^-1'
p2289
aS'seem_among'
p2290
aS'rise_beyond'
p2291
aS'lower_from^-1'
p2292
aS'speed_to^-1'
p2293
aS'be_alongside^-1'
p2294
aS'throw_as'
p2295
aS'obliqued_at'
p2296
aS'seed_with'
p2297
aS'wrinkle_like^-1'
p2298
aS'inter'
p2299
aS'capsize_by^-1'
p2300
aS'brim_with'
p2301
aS'jam^-1'
p2302
aS'decant_into^-1'
p2303
aS'contain_of'
p2304
aS'dispense_from^-1'
p2305
aS'slosh_in^-1'
p2306
aS'range_per^-1'
p2307
aS'froth_with'
p2308
aS'ferment_in^-1'
p2309
aS'mature_in^-1'
p2310
aS'age_in^-1'
p2311
aS'siphon_into^-1'
p2312
aS'hoard_in^-1'
p2313
aS'bottle^-1'
p2314
aS'fizz_in^-1'
p2315
aS'stamp_into^-1'
p2316
aS'strap_to'
p2317
aS'correspond_like'
p2318
aS'undergo_as^-1'
p2319
aS'observe_into^-1'
p2320
aS'waver_on'
p2321
aS'flutter_on'
p2322
aS'flit_on'
p2323
aS'unfurl'
p2324
aS'build_near^-1'
p2325
aS"call_'^-1"
p2326
aS'cluster_around^-1'
p2327
aS'destroy_for^-1'
p2328
aS'metamorphose_into^-1'
p2329
aS'christen^-1'
p2330
aS'tumble_like'
p2331
aS'glitter_like'
p2332
aS'fortify_like^-1'
p2333
aS'betook_unto^-1'
p2334
aS'prisoned_in^-1'
p2335
aS'smite_before^-1'
p2336
aS'fire_against^-1'
p2337
aS'assault^-1'
p2338
aS'yede_unto^-1'
p2339
aS'hopen_to'
p2340
aS'inter_in^-1'
p2341
aS'get_upon^-1'
p2342
aS'faint_in^-1'
p2343
aS'fling_across^-1'
p2344
aS'place_than'
p2345
aS'disturb_with^-1'
p2346
aS'leave_except^-1'
p2347
aS'smell_like^-1'
p2348
aS'influence_except^-1'
p2349
aS'paint_at'
p2350
aS'wear_of'
p2351
aS'glow_like'
p2352
aS'consist_without'
p2353
aS'peep_from^-1'
p2354
aS'compose_without'
p2355
aS'molt'
p2356
aS'rough'
p2357
aS'mew'
p2358
aS'waft_from^-1'
p2359
aS'poise_like'
p2360
aS'possess_to^-1'
p2361
aS'discern_by'
p2362
aS'toss_in'
p2363
aS'hawk_by'
p2364
aS'caution^-1'
p2365
aS'whip_into'
p2366
aS'invoke_upon'
p2367
aS'croak_as'
p2368
aS'cling_like^-1'
p2369
aS'tether'
p2370
aS'chew_like'
p2371
aS'milk_like'
p2372
aS'walk_like'
p2373
aS'except^-1'
p2374
aS'scape_to^-1'
p2375
aS'crowd_like^-1'
p2376
aS'thrive^-1'
p2377
aS'consume_as'
p2378
aS'every_at^-1'
p2379
aS'glance_from'
p2380
aS'knock_with^-1'
p2381
aS'glint_over'
p2382
aS'whistle_for'
p2383
aS'shake_over'
p2384
aS'slew^-1'
p2385
aS'maneuver^-1'
p2386
aS'bank^-1'
p2387
aS'jump_like'
p2388
aS'climb_like'
p2389
aS'scramble_like'
p2390
aS'vault_upon^-1'
p2391
aS'culminate_at^-1'
p2392
aS'hang_under^-1'
p2393
aS'receive_upon'
p2394
aS'scan_from^-1'
p2395
aS'colorize^-1'
p2396
aS'miss_on'
p2397
aS'crouch_under^-1'
p2398
aS'go_near'
p2399
aS'slide_past'
p2400
aS'hurl_from'
p2401
aS'crush_before^-1'
p2402
aS'cleanse_with'
p2403
aS'prefix_to^-1'
p2404
aS'scribble'
p2405
aS'celery^-1'
p2406
aS'multiply_like^-1'
p2407
aS'twitch_like^-1'
p2408
aS'belch'
p2409
aS'tie_near'
p2410
aS'load_at'
p2411
aS'run_before^-1'
p2412
aS'hustle^-1'
p2413
aS'scream_like'
p2414
aS'segregate'
p2415
aS'splash_like'
p2416
aS'struggle_into^-1'
p2417
aS'ally_to'
p2418
aS'return_upon'
p2419
aS'impersonate'
p2420
aS'swell_on^-1'
p2421
aS'hammer_with'
p2422
aS'look_beside'
p2423
aS'prepare_beside'
p2424
aS'disguise_as'
p2425
aS'desert_for'
p2426
aS'back_against^-1'
p2427
aS'sink_upon^-1'
p2428
aS'hoe^-1'
p2429
aS'put_within^-1'
p2430
aS'rotate_with'
p2431
aS'shut_like^-1'
p2432
aS'select_within^-1'
p2433
aS'crowd_round^-1'
p2434
aS'travel_towards^-1'
p2435
aS'rusticate_at^-1'
p2436
aS'soak'
p2437
aS'unite_on'
p2438
aS'put_around^-1'
p2439
aS'garrison_down'
p2440
aS'repair_without'
p2441
aS'incrust_in'
p2442
aS'fortify_with'
p2443
aS'encircle_with'
p2444
aS'guard_with'
p2445
aS'range_along'
p2446
aS'build_within'
p2447
aS'chime_from'
p2448
aS'contract_under'
p2449
aS'pad_with'
p2450
aS'varnish_with'
p2451
aS'tilt_with'
p2452
aS'situate_beneath'
p2453
aS'authorize_for'
p2454
aS'nestle_in'
p2455
aS'emerge_of'
p2456
aS'embower^-1'
p2457
aS'bloom_by^-1'
p2458
aS'stand_below^-1'
p2459
aS'sweeten_as'
p2460
aS'hang_round'
p2461
aS'comrade_to^-1'
p2462
aS'mat_to'
p2463
aS'peep_through^-1'
p2464
aS'sew_on^-1'
p2465
aS'wave_like^-1'
p2466
aS'figure_as'
p2467
aS'name_among'
p2468
aS'dare_with^-1'
p2469
aS'abound_include^-1'
p2470
aS'support_upon'
p2471
aS'halt_with'
p2472
aS'wave_over'
p2473
aS'throweth_on'
p2474
aS'outfly^-1'
p2475
aS'repel_from'
p2476
aS'happen_upon'
p2477
aS'sentimentalize_like^-1'
p2478
aS'judge_with'
p2479
aS'lack_to^-1'
p2480
aS'rivet_upon^-1'
p2481
aS"mark'd_like^-1"
p2482
aS'rivers'
p2483
aS'cast_down'
p2484
aS'apprize_of'
p2485
aS'apprise_of'
p2486
aS'elicit_in'
p2487
aS'glare_at^-1'
p2488
aS'handle_through'
p2489
aS'silence_by^-1'
p2490
aS'champ_at'
p2491
aS'shy'
p2492
aS'wad_to'
p2493
aS'champ_on'
p2494
aS'clamber'
p2495
aS'attempt_with'
p2496
aS'chomp'
p2497
aS'chafe_at'
p2498
aS'ride_without'
p2499
aS'blow_to'
p2500
aS'champ'
p2501
aS'champ_by'
p2502
aS'chafe'
p2503
aS'champ_upon'
p2504
aS'license_in'
p2505
aS'equip_as^-1'
p2506
aS'book_in^-1'
p2507
aS'cater_with'
p2508
aS'cost_for'
p2509
aS'renovate'
p2510
aS'front^-1'
p2511
aS'overbook'
p2512
aS'hire_at^-1'
p2513
aS'search_at^-1'
p2514
aS'enlarge_to'
p2515
aS'pull_across'
p2516
aS'hunch_under^-1'
p2517
aS'fling_across'
p2518
aS'hunch_in^-1'
p2519
aS'sling^-1'
p2520
aS'hook_over'
p2521
aS'go_across'
p2522
aS'beat_into^-1'
p2523
aS'parry_from'
p2524
aS'enter_below'
p2525
aS'dash_into^-1'
p2526
aS'lecture_in^-1'
p2527
aS'cheat_over^-1'
p2528
aS'advance_like'
p2529
aS'wage_with^-1'
p2530
aS'hunt_by^-1'
p2531
aS'eat_like'
p2532
aS'feized'
p2533
aS'wait_like'
p2534
aS'shriek_above'
p2535
aS'hurl_at'
p2536
aS'rain_on'
p2537
aS'whistle_past'
p2538
aS'tip_with'
p2539
aS'deploy_on^-1'
p2540
aS'deform'
p2541
aS'ram^-1'
p2542
aS'motorcycle'
p2543
aS'provide_than^-1'
p2544
aS'worship_by'
p2545
aS'cook_with'
p2546
aS'evaporate_in^-1'
p2547
aS'spring_under'
p2548
aS'hurtle_over'
p2549
aS'perch_over'
p2550
aS'rate_as'
p2551
aS'patronize_by'
p2552
aS'look_onto'
p2553
aS'open_onto'
p2554
aS'flare^-1'
p2555
aS'milk_for'
p2556
aS'milk_of'
p2557
aS'spat'
p2558
aS'inject_by^-1'
p2559
aS'speed_with'
p2560
aS'come_among^-1'
p2561
aS'reed^-1'
p2562
aS'watch_to'
p2563
aS'lose_among'
p2564
aS'shoot_without'
p2565
aS'bulldoze_over'
p2566
aS'gun^-1'
p2567
aS'collapse_on'
p2568
aS'shunt^-1'
p2569
aS'jerk_into'
p2570
aS'contract_into'
p2571
aS'draw_within'
p2572
aS'spend_within'
p2573
aS'pierce_through'
p2574
aS'shout_over'
p2575
aS'jam_past'
p2576
aS'drive_past^-1'
p2577
aS'beckon_to'
p2578
aS'explore_with'
p2579
aS'key_to'
p2580
aS'sift'
p2581
aS'scatter_about^-1'
p2582
aS'share_after'
p2583
aS'bang_by^-1'
p2584
aS'extend_like^-1'
p2585
aS'bite_through'
p2586
aS'set_amongst'
p2587
aS'litter_in^-1'
p2588
aS'refill_with'
p2589
aS'mulch_with'
p2590
aS'plunge_under'
p2591
aS'displace_from^-1'
p2592
aS'clean_in'
p2593
aS'intrude_into^-1'
p2594
aS'filld_with'
p2595
aS'fill_over'
p2596
aS'cool_in'
p2597
aS'evaporate_from^-1'
p2598
aS'rinse_in'
p2599
aS'catch_unlike^-1'
p2600
aS'asepticized_with'
p2601
aS'invert_in'
p2602
aS'carve_on'
p2603
aS'break_off^-1'
p2604
aS'ope'
p2605
aS'load_to'
p2606
aS'repair_for'
p2607
aS'victual_for'
p2608
aS'storm_after'
p2609
aS'crumble_like^-1'
p2610
aS'welcome_to^-1'
p2611
aS'requisition_for'
p2612
aS'enrich_like^-1'
p2613
aS'show_like^-1'
p2614
aS'face_include^-1'
p2615
aS'dignify_with'
p2616
aS'dismantle_by'
p2617
aS'dismantle'
p2618
aS'fashion_of'
p2619
aS'fold_with^-1'
p2620
aS'loll_over^-1'
p2621
aS'strap_to^-1'
p2622
aS'hang_along^-1'
p2623
aS'drape_over^-1'
p2624
aS'rest_of^-1'
p2625
aS'throw_like^-1'
p2626
aS'drink_at'
p2627
aS'peck_at'
p2628
aS'plant_under'
p2629
aS'wink_with'
p2630
aS'rejoice'
p2631
aS'slant_like^-1'
p2632
aS'outrank'
p2633
aS'smile_by'
p2634
aS'mate_with^-1'
p2635
aS'ye'
p2636
aS'fee_beside^-1'
p2637
aS'fashion_like'
p2638
aS'look_beside^-1'
p2639
aS'convey_from^-1'
p2640
aS'boast_to'
p2641
aS'board_by^-1'
p2642
aS'gain_upon'
p2643
aS'flake^-1'
p2644
aS'feather_except'
p2645
aS'bear_between'
p2646
aS'flap_against'
p2647
aS'express_from^-1'
p2648
aS'press_from^-1'
p2649
aS'squeeze_from^-1'
p2650
aS'teeter'
p2651
aS'red^-1'
p2652
aS'outdistance^-1'
p2653
aS'bed_in'
p2654
aS'sterilize^-1'
p2655
aS'cover_at'
p2656
aS'cut_near'
p2657
aS'narrow_at'
p2658
aS'meter_by^-1'
p2659
aS'inject_through^-1'
p2660
aS'supply_through^-1'
p2661
aS'feed_through^-1'
p2662
aS'spray_from^-1'
p2663
aS'contemplate_of^-1'
p2664
aS'disembowel'
p2665
aS'gore^-1'
p2666
aS'cast_to'
p2667
aS'apprehend_than'
p2668
aS'couch_with'
p2669
aS'cry_above'
p2670
aS'swivel'
p2671
aS'wheel_round'
p2672
aS'hoot_above'
p2673
aS'swoop_over'
p2674
aS'screech_over'
p2675
aS'grieve_for'
p2676
aS'win_against^-1'
p2677
aS'famed_for'
p2678
aS'occupy_as^-1'
p2679
aS'cost_at^-1'
p2680
aS'crowd_for'
p2681
aS'chamber^-1'
p2682
aS'fashion_like^-1'
p2683
aS'sell_except^-1'
p2684
aS'catch_as^-1'
p2685
aS'jump_by'
p2686
aS'grased_as^-1'
p2687
aS'stable_like'
p2688
aS'herd_with'
p2689
aS'die_like^-1'
p2690
aS'lay_behind'
p2691
aS'divert_to^-1'
p2692
aS'boil_on^-1'
p2693
aS"ta'en_with"
p2694
aS'shiver_at'
p2695
aS'enter_to'
p2696
aS'short_at'
p2697
aS'imbrue_to'
p2698
aS'drape_at'
p2699
aS'embrued_to'
p2700
aS'break_near'
p2701
aS'mat_with^-1'
p2702
aS'fare^-1'
p2703
aS'wait_like^-1'
p2704
aS'measure_to'
p2705
aS'satiate_with'
p2706
aS'spawn_at'
p2707
aS'leap_about'
p2708
aS'strap_on^-1'
p2709
aS'construct_without'
p2710
aS'strip_to'
p2711
aS'back_through'
p2712
aS'sink_include^-1'
p2713
aS'damage_include^-1'
p2714
aS'rise_lion^-1'
p2715
aS'be_unto^-1'
p2716
aS'interpolate_among'
p2717
aS'rip_to'
p2718
aS'untucked_in'
p2719
aS'display_as'
p2720
aS'update_with'
p2721
aS'load_in^-1'
p2722
aS'display_inside^-1'
p2723
aS'appear_inside^-1'
p2724
aS'sink_besides'
p2725
aS'profane_by'
p2726
aS'shake_to'
p2727
aS'rain_upon^-1'
p2728
aS'rebuild_in'
p2729
aS'use_like'
p2730
aS'smother'
p2731
aS'tear_above'
p2732
aS'castellated^-1'
p2733
aS'embower_in'
p2734
aS'dot_about'
p2735
aS'scatter_about'
p2736
aS'situate_beside'
p2737
aS'grate_on'
p2738
aS'outdistance'
p2739
aS'graze_with^-1'
p2740
aS'leap_as'
p2741
aS'hatch^-1'
p2742
aS'stricken_by'
p2743
aS'transform_to'
p2744
aS'transplant_like'
p2745
aS'broadcloth_with'
p2746
aS'rend_with'
p2747
aS'grip_with'
p2748
aS'outlast'
p2749
aS'strike_except'
p2750
aS'transport_on^-1'
p2751
aS'ship_on^-1'
p2752
aS'carry_like^-1'
p2753
aS'stop_between'
p2754
aS'stroke_across'
p2755
aS'clang_against'
p2756
aS'calculate_than'
p2757
aS'weather_on'
p2758
aS'get_within'
p2759
aS'draw_near'
p2760
aS'legs'
p2761
aS'suck_down^-1'
p2762
aS'rehearse_to^-1'
p2763
aS'feed_upon^-1'
p2764
aS'mash'
p2765
aS'brush_from'
p2766
aS'fit_as^-1'
p2767
aS'pair_like'
p2768
aS'propagate_from'
p2769
aS'flatted_on'
p2770
aS'ventilate_in'
p2771
aS'tie_on'
p2772
aS'have_along'
p2773
aS'perch_between'
p2774
aS"look'd_with"
p2775
aS'swoop_past'
p2776
aS'rush_at^-1'
p2777
aS'wage_with'
p2778
aS'gore_by'
p2779
aS'outrank^-1'
p2780
aS'smile_by^-1'
p2781
aS'rush_towards^-1'
p2782
aS'intermingle_with'
p2783
aS'stampede_by'
p2784
aS'terrify^-1'
p2785
aS'live_than^-1'
p2786
aS'fall_off^-1'
p2787
aS'throw_around'
p2788
aS'stretch_down'
p2789
aS'tie_about'
p2790
aS'reach_down'
p2791
aS"dropp'd"
p2792
aS'nuzzle'
p2793
aS'nibble_at'
p2794
aS'prance_around'
p2795
aS'toss_on'
p2796
aS'23d_at'
p2797
aS'reopen_as'
p2798
aS'open_as^-1'
p2799
aS'construct_as^-1'
p2800
aS'stand_below'
p2801
aS'overlook_on'
p2802
aS'have_indoor'
p2803
aS'varnish_over'
p2804
aS'supersede_for^-1'
p2805
aS'accommodate_in'
p2806
aS'your^-1'
p2807
aS'locate_with^-1'
p2808
aS'retailers^-1'
p2809
aS'pile_with^-1'
p2810
aS'yawn_in^-1'
p2811
aS'huddle_upon'
p2812
aS'roar_in'
p2813
aS'leap_before'
p2814
aS'drowse^-1'
p2815
aS'fasten_upon^-1'
p2816
aS'gleam_at^-1'
p2817
aS'perceive_with'
p2818
aS'nuzzle_with'
p2819
aS'fling_like^-1'
p2820
aS'arrive_before'
p2821
aS'glow_like^-1'
p2822
aS'retaliate_with'
p2823
aS'breed_on'
p2824
aS'localize_with^-1'
p2825
aS'load_from'
p2826
aS'roast_in'
p2827
aS'set_without^-1'
p2828
aS'roar_like'
p2829
aS'knock_by'
p2830
aS'hack_into^-1'
p2831
aS'individualist_to'
p2832
aS'position_as'
p2833
aS'broadcast_on'
p2834
aS'surf_on^-1'
p2835
aS'watch_via'
p2836
aS'render_into'
p2837
aS'coho'
p2838
aS'den_as'
p2839
aS'slide_on'
p2840
aS'mammee^-1'
p2841
aS'ripen^-1'
p2842
aS'mature^-1'
p2843
aS'mature_upon^-1'
p2844
aS'ripen_after^-1'
p2845
aS'keep_inside'
p2846
aS'rot_from'
p2847
aS'depend_since^-1'
p2848
aS'range_among^-1'
p2849
aS'push_near^-1'
p2850
aS'cram_into'
p2851
aS'drag_off^-1'
p2852
aS'innerspring'
p2853
aS'recover_into^-1'
p2854
aS'chatter_at^-1'
p2855
aS'burnish_on'
p2856
aS'grate_into^-1'
p2857
aS'invert_over'
p2858
aS'place_alongside'
p2859
aS'dialog^-1'
p2860
aS'appear_below^-1'
p2861
aS'appear_below'
p2862
aS'meas^-1'
p2863
aS'display_as^-1'
p2864
aS'harmonise_with^-1'
p2865
aS'suspend_within'
p2866
aS'suspend_within^-1'
p2867
aS'prefer_as^-1'
p2868
aS'harmonise_with'
p2869
aS'prefer_as'
p2870
aS'meas'
p2871
aS'appear_around^-1'
p2872
aS'wrap_with'
p2873
aS'seal_in^-1'
p2874
aS'7s'
p2875
aS'flit_by'
p2876
aS'consider_than^-1'
p2877
aS'deride'
p2878
aS'pluck_from'
p2879
aS'bend_under^-1'
p2880
aS'dangle_at'
p2881
aS'attain_like^-1'
p2882
aS'discard_for^-1'
p2883
aS'shine_under'
p2884
aS'frame_with'
p2885
aS'strop'
p2886
aS'walk_within'
p2887
aS'unload^-1'
p2888
aS'employ_upon^-1'
p2889
aS'rack_in^-1'
p2890
aS'vanish_as'
p2891
aS'burrow_in'
p2892
aS'damage_in'
p2893
aS'cruise_under'
p2894
aS'uplift_on'
p2895
aS'breathe_at'
p2896
aS'have_between'
p2897
aS'bleat_with'
p2898
aS'seal_by'
p2899
aS'hammer_by^-1'
p2900
aS'hammer_under^-1'
p2901
aS'ding_upon'
p2902
aS'draw_under^-1'
p2903
aS'shape_under^-1'
p2904
aS'wind_round^-1'
p2905
aS'protect_for^-1'
p2906
aS'color_like^-1'
p2907
aS'vanish^-1'
p2908
aS'group_like^-1'
p2909
aS'lunge_like'
p2910
aS'startle_as^-1'
p2911
aS'commit_among^-1'
p2912
aS'form_like'
p2913
aS'breed_as'
p2914
aS'sacrifice_as'
p2915
aS'cover_like^-1'
p2916
aS'trot_for'
p2917
aS'capitalize_as'
p2918
aS'improvise_in'
p2919
aS'soak_under^-1'
p2920
aS'stick_like'
p2921
aS'stuff_to'
p2922
aS'spray_from'
p2923
aS'flare_in'
p2924
aS'penetrate_within'
p2925
aS'glide_before^-1'
p2926
aS'bleed_upon^-1'
p2927
aS'bereave_of'
p2928
aS'shove_with^-1'
p2929
aS'tremble_through^-1'
p2930
aS'transfected_into'
p2931
aS'transform_with^-1'
p2932
aS'transfected_with^-1'
p2933
aS'decorate_like^-1'
p2934
aS'disperse_through'
p2935
aS'furnish_as^-1'
p2936
aS'shelve_in'
p2937
aS'encapsulate'
p2938
aS'initialize_by^-1'
p2939
aS'clone_from^-1'
p2940
aS'irritate_by'
p2941
aS'spring_like'
p2942
aS'meow_to^-1'
p2943
aS'wend_toward^-1'
p2944
aS'depict_with'
p2945
aS'shuck'
p2946
aS'bristle_like^-1'
p2947
aS'chase_about'
p2948
aS'sieze_by'
p2949
aS'squirt_from'
p2950
aS'level_along'
p2951
aS'shut_with'
p2952
aS'bake_in^-1'
p2953
aS'preheat^-1'
p2954
aS'burst_upon'
p2955
aS'preen'
p2956
aS'roll_around'
p2957
aS'swoop_with'
p2958
aS'waddle_round'
p2959
aS'lap_like^-1'
p2960
aS'sniff_at'
p2961
aS'infect_through'
p2962
aS'shoot_near'
p2963
aS'scud_with'
p2964
aS'saw_like^-1'
p2965
aS'bleed_under'
p2966
aS'conciliate_to'
p2967
aS'walk_among'
p2968
aS'part_from'
p2969
aS'confide_from'
p2970
aS'herd_with^-1'
p2971
aS'be_az^-1'
p2972
aS'segregate_from^-1'
p2973
aS'sort_from'
p2974
aS'lengthen_into'
p2975
aS'round_at'
p2976
aS'recast_into^-1'
p2977
aS'hand_with'
p2978
aS'climb_like^-1'
p2979
aS'dig_for^-1'
p2980
aS'display_upon'
p2981
aS'hammer_upon'
p2982
aS'stain_at'
p2983
aS'edge^-1'
p2984
aS'hand_at'
p2985
aS'devoureth_to'
p2986
aS'wave_at'
p2987
aS'desecrate_to'
p2988
aS'devour_from'
p2989
aS'devoureth_from'
p2990
aS'affix_to'
p2991
aS'beat_into'
p2992
aS'parry_from^-1'
p2993
aS'fight_to'
p2994
aS'halt_in'
p2995
aS'unload_in'
p2996
aS'be_out'
p2997
aS'slide_in'
p2998
aS'screech_in'
p2999
aS'park_out'
p3000
aS'rumble_in'
p3001
aS'pull_out'
p3002
aS'swerve_in'
p3003
aS'slow_in'
p3004
aS'overturn_in'
p3005
aS'idle_in'
p3006
aS'block_in'
p3007
aS'describe_through^-1'
p3008
aS'stray'
p3009
aS'keep_without'
p3010
aS'catch_for'
p3011
aS'retract'
p3012
aS'stall_in'
p3013
aS'play_like^-1'
p3014
aS'gnaw_with'
p3015
aS'snatch_with'
p3016
aS'spell_from'
p3017
aS'powder_with'
p3018
aS'leach'
p3019
aS'hear_upon^-1'
p3020
aS'work_of'
p3021
aS'sprout^-1'
p3022
aS'accumulate_on'
p3023
aS'hoist_to'
p3024
aS'layer_on'
p3025
aS'close_over^-1'
p3026
aS'jerk_off^-1'
p3027
aS'invite_at^-1'
p3028
aS'wander_about^-1'
p3029
aS'bolt_from^-1'
p3030
aS'lose_before^-1'
p3031
aS'invest_at^-1'
p3032
aS'consecrate_into^-1'
p3033
aS'heretofore'
p3034
aS'engraven_on^-1'
p3035
aS'place_of^-1'
p3036
aS'violoncello^-1'
p3037
aS'flutter_over^-1'
p3038
aS'holler_over'
p3039
aS'caw'
p3040
aS'croak_over'
p3041
aS'hang_under'
p3042
aS'hadde_under'
p3043
aS'tattoo_on'
p3044
aS'flash_upon^-1'
p3045
aS'see_except^-1'
p3046
aS'follow_include^-1'
p3047
aS'exterminate_from^-1'
p3048
aS'keep_than'
p3049
aS'graze_of^-1'
p3050
aS'continue_underneath^-1'
p3051
aS'rip_down'
p3052
aS'wing_like'
p3053
aS'pounce_upon'
p3054
aS'represent_like^-1'
p3055
aS'sprawl'
p3056
aS'reign_among'
p3057
aS'bother_except^-1'
p3058
aS'dyeth'
p3059
aS'constitute_as'
p3060
aS'roast^-1'
p3061
aS'bleat_from'
p3062
aS'be_az'
p3063
aS'walk_among^-1'
p3064
aS'sort_from^-1'
p3065
aS'confide_from^-1'
p3066
aS'segregate_from'
p3067
aS'stammer_with'
p3068
aS'scream_from'
p3069
aS'cease_to^-1'
p3070
aS'rouge_for^-1'
p3071
aS'knock_into^-1'
p3072
aS'settle_like'
p3073
aS'oust'
p3074
aS'nod_to^-1'
p3075
aS'flash_among'
p3076
aS'beseech^-1'
p3077
aS'dart_over'
p3078
aS'jab^-1'
p3079
aS'rear_like^-1'
p3080
aS'bite_by'
p3081
aS'plentier_than'
p3082
aS'train_like'
p3083
aS'swim_like'
p3084
aS'bound_toward^-1'
p3085
aS'frisk_round^-1'
p3086
aS'go_alongside^-1'
p3087
aS'tether_with'
p3088
aS'rear_onto'
p3089
aS'poise_upon'
p3090
aS'bend_around'
p3091
aS'hurt_with^-1'
p3092
aS'disable_in'
p3093
aS'jolt_on'
p3094
aS'catch_under^-1'
p3095
aS'retire_on'
p3096
aS'trot_on'
p3097
aS'doze_with'
p3098
aS'stay_under^-1'
p3099
aS'bar_on'
p3100
aS'hop_on'
p3101
aS'kick_by'
p3102
aS'produce_between^-1'
p3103
aS'need_with^-1'
p3104
aS'engender_between^-1'
p3105
aS'prefer_over^-1'
p3106
aS'carry_except'
p3107
aS'beget_by'
p3108
aS'nudge_with'
p3109
aS'rest_like^-1'
p3110
aS'thrust_over'
p3111
aS'neigh_in'
p3112
aS'oppose_as'
p3113
aS'attain_like'
p3114
aS'discard_for'
p3115
aS'illustrations'
p3116
aS'dust_about'
p3117
aS'shriek_with^-1'
p3118
aS'glitter_over'
p3119
aS'shave_with^-1'
p3120
aS'cushion^-1'
p3121
aS'brandish_over'
p3122
aS'covet'
p3123
aS'thrusteth'
p3124
aS'mangle_with'
p3125
aS'blast^-1'
p3126
aS'hurl_by'
p3127
aS'sweep_on'
p3128
aS'drift_on'
p3129
aS'yawn'
p3130
aS'shrug_with'
p3131
aS'flap_on'
p3132
aS'whirr_upon'
p3133
aS'horn^-1'
p3134
aS'dwarf^-1'
p3135
aS'circle_around'
p3136
aS'swoop_toward'
p3137
aS'swarm_round'
p3138
aS'wrench_from'
p3139
aS'catch_between'
p3140
aS'seek_as'
p3141
aS'fatten'
p3142
aS'bake^-1'
p3143
aS'salt_with^-1'
p3144
aS'multiply_into'
p3145
aS'strike_en'
p3146
aS'approve_among^-1'
p3147
aS'think_among^-1'
p3148
aS'miscall^-1'
p3149
aS'listen_on^-1'
p3150
aS'go_till'
p3151
aS'overmatched_by'
p3152
aS'lace_over^-1'
p3153
aS'conceal_behind'
p3154
aS'splash_with'
p3155
aS'apprehend_at'
p3156
aS'knock_off'
p3157
aS'stumble_to'
p3158
aS"stuff'd_with^-1"
p3159
aS'stuffd_with^-1'
p3160
aS'stick_with^-1'
p3161
aS'stitch_onto'
p3162
aS'shave'
p3163
aS'go_en^-1'
p3164
aS'brush_across'
p3165
aS'simmer_on^-1'
p3166
aS'mute_into'
p3167
aS'fall_without'
p3168
aS'spy^-1'
p3169
aS'bore_down'
p3170
aS'grasp_as'
p3171
aS'cackle_among^-1'
p3172
aS'stuff_inside'
p3173
aS'sheathe_in'
p3174
aS'hiss_from'
p3175
aS'grit_in'
p3176
aS'remain_outside'
p3177
aS'clank_in'
p3178
aS'whip_from'
p3179
aS'loosen_in'
p3180
aS'frighten_into'
p3181
aS'groan_in'
p3182
aS'gleam_of^-1'
p3183
aS'forge_of'
p3184
aS'shiver_on'
p3185
aS'interest_as'
p3186
aS'can^-1'
p3187
aS'arbeidersbeweging'
p3188
aS'thrill_into'
p3189
aS'mat_to^-1'
p3190
aS'comrade_to'
p3191
aS'stand_opposite'
p3192
aS'unmounted_with^-1'
p3193
a.